	.file	"sd.c"
	.option nopic
	.attribute arch, "rv64i2p1_m2p0_a2p1_c2p0_zicsr2p0_zifencei2p0"
	.attribute unaligned_access, 0
	.attribute stack_align, 16
	.text
.Ltext0:
	.cfi_sections	.debug_frame
	.file 0 "/home/zdd/MEISHAV100/trunk/sw/sdboot" "sd.c"
	.section	.rodata.str1.8,"aMS",@progbits,1
	.align	3
.LC0:
	.string	"sd_cmd: timeout"
	.text
	.align	1
	.type	sd_cmd, @function
sd_cmd:
.LFB3:
	.file 1 "sd.c"
	.loc 1 40 1
	.cfi_startproc
.LVL0:
	.loc 1 41 2
	.loc 1 42 2
	.loc 1 44 2
	.loc 1 40 1 is_stmt 0
	addi	sp,sp,-16
	.cfi_def_cfa_offset 16
	sd	ra,8(sp)
	sd	s0,0(sp)
	.cfi_offset 1, -8
	.cfi_offset 8, -16
	.loc 1 44 29
	li	a5,1677725696
	li	a4,2
	sw	a4,24(a5)
	.loc 1 45 2 is_stmt 1
.LBB126:
	.loc 1 36 2
.LVL1:
.LBB127:
.LBB128:
	.loc 1 25 2
	.loc 1 27 2
	.loc 1 27 29 is_stmt 0
	li	a4,255
	sw	a4,72(a5)
	.loc 1 29 7
	li	a4,1677725696
.L2:
	.loc 1 28 2 is_stmt 1
	.loc 1 29 3
	.loc 1 29 7 is_stmt 0
	lw	a5,76(a4)
.LVL2:
	.loc 1 30 13 is_stmt 1
	blt	a5,zero,.L2
	.loc 1 31 2
.LVL3:
.LBE128:
.LBE127:
.LBE126:
	.loc 1 46 2
.LBB129:
.LBB130:
	.loc 1 25 2
	.loc 1 27 2
	.loc 1 27 29 is_stmt 0
	sext.w	a0,a0
.LVL4:
	sw	a0,72(a4)
	.loc 1 29 7
	li	a4,1677725696
.L3:
	.loc 1 28 2 is_stmt 1
	.loc 1 29 3
	.loc 1 29 7 is_stmt 0
	lw	a5,76(a4)
.LVL5:
	.loc 1 30 13 is_stmt 1
	blt	a5,zero,.L3
	.loc 1 31 2
.LVL6:
.LBE130:
.LBE129:
	.loc 1 47 2
	.loc 1 47 15 is_stmt 0
	srliw	a5,a1,24
.LVL7:
.LBB131:
.LBB132:
	.loc 1 25 2 is_stmt 1
	.loc 1 27 2
	.loc 1 27 29 is_stmt 0
	sw	a5,72(a4)
	.loc 1 29 7
	li	a4,1677725696
.LVL8:
.L4:
	.loc 1 28 2 is_stmt 1
	.loc 1 29 3
	.loc 1 29 7 is_stmt 0
	lw	a5,76(a4)
.LVL9:
	.loc 1 30 13 is_stmt 1
	blt	a5,zero,.L4
	.loc 1 31 2
.LVL10:
.LBE132:
.LBE131:
	.loc 1 48 2
.LBB133:
.LBB134:
	.loc 1 25 2
	.loc 1 27 2
	.loc 1 27 29 is_stmt 0
	sw	zero,72(a4)
	.loc 1 29 7
	li	a4,1677725696
.L5:
	.loc 1 28 2 is_stmt 1
	.loc 1 29 3
	.loc 1 29 7 is_stmt 0
	lw	a5,76(a4)
.LVL11:
	.loc 1 30 13 is_stmt 1
	blt	a5,zero,.L5
	.loc 1 31 2
.LVL12:
.LBE134:
.LBE133:
	.loc 1 49 2
.LBB135:
.LBB136:
	.loc 1 25 2
	.loc 1 27 2
.LBE136:
.LBE135:
	.loc 1 49 15 is_stmt 0
	srliw	a5,a1,8
	andi	a5,a5,0xff
.LBB138:
.LBB137:
	.loc 1 27 29
	sw	a5,72(a4)
	.loc 1 29 7
	li	a4,1677725696
.L6:
	.loc 1 28 2 is_stmt 1
	.loc 1 29 3
	.loc 1 29 7 is_stmt 0
	lw	a5,76(a4)
.LVL13:
	.loc 1 30 13 is_stmt 1
	blt	a5,zero,.L6
	.loc 1 31 2
.LVL14:
.LBE137:
.LBE138:
	.loc 1 50 2
.LBB139:
.LBB140:
	.loc 1 25 2
	.loc 1 27 2
	andi	a1,a1,0xff
.LVL15:
	.loc 1 27 29 is_stmt 0
	sw	a1,72(a4)
	.loc 1 29 7
	li	a4,1677725696
.L7:
	.loc 1 28 2 is_stmt 1
	.loc 1 29 3
	.loc 1 29 7 is_stmt 0
	lw	a5,76(a4)
.LVL16:
	.loc 1 30 13 is_stmt 1
	blt	a5,zero,.L7
	.loc 1 31 2
.LVL17:
.LBE140:
.LBE139:
	.loc 1 51 2
.LBB141:
.LBB142:
	.loc 1 25 2
	.loc 1 27 2
	.loc 1 27 29 is_stmt 0
	sext.w	a5,a2
	sw	a5,72(a4)
	.loc 1 29 7
	li	a4,1677725696
.L8:
	.loc 1 28 2 is_stmt 1
	.loc 1 29 3
	.loc 1 29 7 is_stmt 0
	lw	a5,76(a4)
.LVL18:
	.loc 1 30 13 is_stmt 1
	blt	a5,zero,.L8
.LBE142:
.LBE141:
.LBB144:
.LBB145:
.LBB146:
	.loc 1 27 29 is_stmt 0
	li	a4,1677725696
.LBE146:
.LBE145:
.LBE144:
.LBB151:
.LBB143:
	li	a3,1000
.LBE143:
.LBE151:
.LBB152:
.LBB149:
.LBB147:
	addi	a1,a4,72
	li	a2,255
.LVL19:
.L11:
.LBE147:
.LBE149:
.LBE152:
	.loc 1 54 2 is_stmt 1
	.loc 1 55 3
.LBB153:
	.loc 1 36 2
.LBB150:
.LBB148:
	.loc 1 25 2
	.loc 1 27 2
	.loc 1 27 29 is_stmt 0
	sw	a2,0(a1)
.L9:
	.loc 1 28 2 is_stmt 1
	.loc 1 29 3
	.loc 1 29 7 is_stmt 0
	lw	a5,76(a4)
	sext.w	s0,a5
.LVL20:
	.loc 1 30 13 is_stmt 1
	blt	a5,zero,.L9
	.loc 1 31 2
.LVL21:
.LBE148:
.LBE150:
.LBE153:
	.loc 1 56 3
	.loc 1 56 6 is_stmt 0
	slliw	a5,s0,24
	sraiw	a5,a5,24
	bge	a5,zero,.L10
	.loc 1 60 15 is_stmt 1
	addi	a3,a3,-1
	bne	a3,zero,.L11
	.loc 1 61 2
	lla	a0,.LC0
	call	kputs
.LVL22:
.L10:
	.loc 1 63 2
	.loc 1 64 1 is_stmt 0
	ld	ra,8(sp)
	.cfi_restore 1
	andi	a0,s0,0xff
	ld	s0,0(sp)
	.cfi_restore 8
.LVL23:
	addi	sp,sp,16
	.cfi_def_cfa_offset 0
	jr	ra
	.cfi_endproc
.LFE3:
	.size	sd_cmd, .-sd_cmd
	.section	.rodata.str1.8
	.align	3
.LC1:
	.string	"INIT"
	.align	3
.LC2:
	.string	"CMD0"
	.align	3
.LC3:
	.string	"CMD8"
	.align	3
.LC4:
	.string	"ACMD41"
	.align	3
.LC5:
	.string	"CMD58"
	.align	3
.LC6:
	.string	"CMD16"
	.align	3
.LC7:
	.string	"CMD18"
	.align	3
.LC8:
	.string	"LOADING  "
	.align	3
.LC9:
	.string	"\b- CRC mismatch "
	.align	3
.LC10:
	.string	"\b "
	.align	3
.LC11:
	.string	"ERROR"
	.align	3
.LC12:
	.string	"BOOT"
	.section	.text.startup,"ax",@progbits
	.align	1
	.globl	main
	.type	main, @function
main:
.LFB14:
	.loc 1 210 1 is_stmt 1
	.cfi_startproc
	.loc 1 211 2
	.loc 1 210 1 is_stmt 0
	addi	sp,sp,-32
	.cfi_def_cfa_offset 32
	sd	s0,16(sp)
	.loc 1 211 31
	li	a5,1677721600
	li	a4,1
	.loc 1 210 1
	sd	ra,24(sp)
	sd	s1,8(sp)
	sd	s2,0(sp)
	.cfi_offset 8, -16
	.cfi_offset 1, -8
	.cfi_offset 9, -24
	.cfi_offset 18, -32
	.loc 1 211 31
	sw	a4,8(a5)
	.loc 1 213 2 is_stmt 1
	lla	a0,.LC1
	call	kputs
.LVL24:
	.loc 1 214 2
.LBB257:
.LBB258:
	.loc 1 75 2
	.loc 1 76 2
	.loc 1 76 29 is_stmt 0
	li	a5,1677725696
	li	a4,166
	sw	a4,0(a5)
	.loc 1 77 2 is_stmt 1
.LBB259:
.LBB260:
.LBB261:
	.loc 1 27 29 is_stmt 0
	li	s0,1677725696
.LBE261:
.LBE260:
.LBE259:
	.loc 1 77 29
	li	a4,3
	sw	a4,24(a5)
	.loc 1 78 2 is_stmt 1
.LVL25:
	.loc 1 78 17
.LBB268:
.LBB265:
.LBB262:
	.loc 1 27 29 is_stmt 0
	addi	a2,s0,72
.LBE262:
.LBE265:
.LBE268:
	.loc 1 77 29
	li	a4,10
.LBB269:
.LBB266:
.LBB263:
	.loc 1 27 29
	li	a3,255
.LVL26:
.L25:
.LBE263:
.LBE266:
.LBE269:
	.loc 1 79 3 is_stmt 1
.LBB270:
	.loc 1 36 2
.LBB267:
.LBB264:
	.loc 1 25 2
	.loc 1 27 2
	.loc 1 27 29 is_stmt 0
	sw	a3,0(a2)
.L24:
	.loc 1 28 2 is_stmt 1
	.loc 1 29 3
	.loc 1 29 7 is_stmt 0
	lw	a5,76(s0)
.LVL27:
	.loc 1 30 13 is_stmt 1
	blt	a5,zero,.L24
	.loc 1 31 2
.LVL28:
.LBE264:
.LBE267:
.LBE270:
	.loc 1 78 23
	.loc 1 78 17
	addi	a4,a4,-1
	bne	a4,zero,.L25
	.loc 1 81 2
.LBE258:
.LBE257:
.LBB272:
.LBB273:
	.loc 1 87 2 is_stmt 0
	lla	a0,.LC2
.LBE273:
.LBE272:
.LBB280:
.LBB271:
	.loc 1 81 29
	sw	zero,24(s0)
.LBE271:
.LBE280:
	.loc 1 215 2 is_stmt 1
.LBB281:
.LBB279:
	.loc 1 86 2
	.loc 1 87 2
	call	kputs
.LVL29:
	.loc 1 88 2
	.loc 1 88 8 is_stmt 0
	li	a2,149
	li	a1,0
	li	a0,64
	call	sd_cmd
.LVL30:
	.loc 1 89 2 is_stmt 1
.LBB274:
.LBB275:
	.loc 1 68 2
.LBB276:
	.loc 1 36 2
.LBB277:
.LBB278:
	.loc 1 25 2
	.loc 1 27 2
	.loc 1 27 29 is_stmt 0
	li	a5,255
	sw	a5,72(s0)
	.loc 1 29 7
	li	s0,1677725696
.L26:
	.loc 1 28 2 is_stmt 1
	.loc 1 29 3
	.loc 1 29 7 is_stmt 0
	lw	a5,76(s0)
.LVL31:
	.loc 1 30 13 is_stmt 1
	blt	a5,zero,.L26
	.loc 1 31 2
.LVL32:
.LBE278:
.LBE277:
.LBE276:
	.loc 1 69 2
	.loc 1 69 29 is_stmt 0
	sw	zero,24(s0)
.LBE275:
.LBE274:
	.loc 1 90 2 is_stmt 1
.LVL33:
.LBE279:
.LBE281:
	.loc 1 215 5 is_stmt 0
	li	a5,1
	bne	a0,a5,.L28
.LBB282:
.LBB283:
	.loc 1 95 2 is_stmt 1
	.loc 1 96 2
	lla	a0,.LC3
	call	kputs
.LVL34:
	.loc 1 97 2
	.loc 1 97 8 is_stmt 0
	li	a1,426
	li	a2,135
	li	a0,72
	call	sd_cmd
.LVL35:
	.loc 1 97 39
	sext.w	a3,a0
	addi	a3,a3,-1
.LBB284:
.LBB285:
.LBB286:
	.loc 1 27 29
	li	a5,255
.LBE286:
.LBE285:
.LBE284:
	.loc 1 97 39
	snez	a1,a3
.LVL36:
	.loc 1 98 2 is_stmt 1
.LBB289:
	.loc 1 36 2
.LBB288:
.LBB287:
	.loc 1 25 2
	.loc 1 27 2
	.loc 1 27 29 is_stmt 0
	sw	a5,72(s0)
	.loc 1 29 7
	li	a4,1677725696
.L29:
	.loc 1 28 2 is_stmt 1
	.loc 1 29 3
	.loc 1 29 7 is_stmt 0
	lw	a5,76(a4)
.LVL37:
	.loc 1 30 13 is_stmt 1
	blt	a5,zero,.L29
	.loc 1 31 2
.LVL38:
.LBE287:
.LBE288:
.LBE289:
	.loc 1 99 2
.LBB290:
	.loc 1 36 2
.LBB291:
.LBB292:
	.loc 1 25 2
	.loc 1 27 2
	.loc 1 27 29 is_stmt 0
	li	a5,255
	sw	a5,72(a4)
	.loc 1 29 7
	li	a4,1677725696
.L30:
	.loc 1 28 2 is_stmt 1
	.loc 1 29 3
	.loc 1 29 7 is_stmt 0
	lw	a5,76(a4)
.LVL39:
	.loc 1 30 13 is_stmt 1
	blt	a5,zero,.L30
	.loc 1 31 2
.LVL40:
.LBE292:
.LBE291:
.LBE290:
	.loc 1 100 2
.LBB293:
	.loc 1 36 2
.LBB294:
.LBB295:
	.loc 1 25 2
	.loc 1 27 2
	.loc 1 27 29 is_stmt 0
	li	a5,255
	sw	a5,72(a4)
	.loc 1 29 7
	li	a3,1677725696
.L31:
	.loc 1 28 2 is_stmt 1
	.loc 1 29 3
	.loc 1 29 7 is_stmt 0
	lw	a5,76(a3)
	sext.w	a4,a5
.LVL41:
	.loc 1 30 13 is_stmt 1
	blt	a5,zero,.L31
	.loc 1 31 2
.LVL42:
.LBE295:
.LBE294:
.LBE293:
	.loc 1 100 28 is_stmt 0
	andi	a4,a4,15
	addi	a5,a4,-1
	snez	a4,a5
.LVL43:
	.loc 1 101 2 is_stmt 1
.LBB296:
	.loc 1 36 2
.LBB297:
.LBB298:
	.loc 1 25 2
	.loc 1 27 2
	.loc 1 27 29 is_stmt 0
	li	a5,255
	sw	a5,72(a3)
	.loc 1 29 7
	li	a2,1677725696
.L32:
	.loc 1 28 2 is_stmt 1
	.loc 1 29 3
	.loc 1 29 7 is_stmt 0
	lw	a5,76(a2)
	sext.w	a3,a5
.LVL44:
	.loc 1 30 13 is_stmt 1
	blt	a5,zero,.L32
	.loc 1 31 2
.LVL45:
.LBE298:
.LBE297:
.LBE296:
	.loc 1 101 20 is_stmt 0
	andi	a5,a3,0xff
	addi	a5,a5,-170
	snez	a5,a5
	or	a5,a4,a5
	or	a3,a1,a5
.LBB299:
.LBB300:
.LBB301:
.LBB302:
.LBB303:
	.loc 1 27 29
	li	a5,255
	andi	a3,a3,0xff
.LVL46:
.LBE303:
.LBE302:
.LBE301:
.LBE300:
.LBE299:
	.loc 1 102 2 is_stmt 1
.LBB308:
.LBB307:
	.loc 1 68 2
.LBB306:
	.loc 1 36 2
.LBB305:
.LBB304:
	.loc 1 25 2
	.loc 1 27 2
	.loc 1 27 29 is_stmt 0
	sw	a5,72(a2)
	.loc 1 29 7
	li	a4,1677725696
.L33:
	.loc 1 28 2 is_stmt 1
	.loc 1 29 3
	.loc 1 29 7 is_stmt 0
	lw	a5,76(a4)
.LVL47:
	.loc 1 30 13 is_stmt 1
	blt	a5,zero,.L33
	.loc 1 31 2
.LVL48:
.LBE304:
.LBE305:
.LBE306:
	.loc 1 69 2
	.loc 1 69 29 is_stmt 0
	sw	zero,24(a4)
.LBE307:
.LBE308:
	.loc 1 103 2 is_stmt 1
.LVL49:
.LBE283:
.LBE282:
	.loc 1 215 16 is_stmt 0
	beq	a3,zero,.L91
.L28:
	.loc 1 221 3 is_stmt 1
	lla	a0,.LC11
	call	kputs
.LVL50:
	.loc 1 222 3
	.loc 1 222 10 is_stmt 0
	li	s0,1
.L59:
	.loc 1 229 1
	ld	ra,24(sp)
	.cfi_remember_state
	.cfi_restore 1
	mv	a0,s0
	ld	s0,16(sp)
	.cfi_restore 8
	ld	s1,8(sp)
	.cfi_restore 9
	ld	s2,0(sp)
	.cfi_restore 18
	addi	sp,sp,32
	.cfi_def_cfa_offset 0
	jr	ra
.L91:
	.cfi_restore_state
.LBB309:
.LBB310:
	.loc 1 114 2 is_stmt 1
	.loc 1 115 2
	lla	a0,.LC4
	call	kputs
.LVL51:
.LBB311:
.LBB312:
.LBB313:
.LBB314:
.LBB315:
.LBB316:
.LBB317:
	.loc 1 27 29 is_stmt 0
	li	s0,1677725696
	li	s2,255
.LBE317:
.LBE316:
.LBE315:
.LBE314:
.LBE313:
.LBE312:
.LBE311:
	.loc 1 119 13
	li	s1,1
.L36:
	.loc 1 116 2 is_stmt 1
	.loc 1 117 3
.LBB324:
.LBB323:
	.loc 1 108 2
	li	a2,101
	li	a1,0
	li	a0,119
	call	sd_cmd
.LVL52:
	.loc 1 109 2
.LBB322:
.LBB321:
	.loc 1 68 2
.LBB320:
	.loc 1 36 2
.LBB319:
.LBB318:
	.loc 1 25 2
	.loc 1 27 2
	.loc 1 27 29 is_stmt 0
	sw	s2,72(s0)
.L35:
	.loc 1 28 2 is_stmt 1
	.loc 1 29 3
	.loc 1 29 7 is_stmt 0
	lw	a5,76(s0)
.LVL53:
	.loc 1 30 13 is_stmt 1
	blt	a5,zero,.L35
	.loc 1 31 2
.LVL54:
.LBE318:
.LBE319:
.LBE320:
	.loc 1 69 2
	.loc 1 69 29 is_stmt 0
	sw	zero,24(s0)
.LBE321:
.LBE322:
.LBE323:
.LBE324:
	.loc 1 118 3 is_stmt 1
	.loc 1 118 7 is_stmt 0
	li	a2,119
	li	a1,1073741824
	li	a0,105
	call	sd_cmd
.LVL55:
	.loc 1 119 13 is_stmt 1
	beq	a0,s1,.L36
	.loc 1 120 2
.LVL56:
.LBE310:
.LBE309:
	.loc 1 216 16 is_stmt 0
	bne	a0,zero,.L28
.LBB325:
.LBB326:
	.loc 1 125 2 is_stmt 1
	.loc 1 126 2
	lla	a0,.LC5
	call	kputs
.LVL57:
	.loc 1 127 2
	.loc 1 127 8 is_stmt 0
	li	a2,253
	li	a1,0
	li	a0,122
	call	sd_cmd
.LVL58:
.LBB327:
.LBB328:
.LBB329:
	.loc 1 27 29
	li	a5,255
.LBE329:
.LBE328:
.LBE327:
	.loc 1 127 30
	snez	a3,a0
.LVL59:
	.loc 1 128 2 is_stmt 1
.LBB332:
	.loc 1 36 2
.LBB331:
.LBB330:
	.loc 1 25 2
	.loc 1 27 2
	.loc 1 27 29 is_stmt 0
	sw	a5,72(s0)
	.loc 1 29 7
	li	a2,1677725696
.L37:
	.loc 1 28 2 is_stmt 1
	.loc 1 29 3
	.loc 1 29 7 is_stmt 0
	lw	a5,76(a2)
	sext.w	a4,a5
.LVL60:
	.loc 1 30 13 is_stmt 1
	blt	a5,zero,.L37
	.loc 1 31 2
.LVL61:
.LBE330:
.LBE331:
.LBE332:
	.loc 1 128 29 is_stmt 0
	sraiw	a5,a4,7
	xori	a5,a5,1
	andi	a5,a5,1
	or	a4,a3,a5
.LVL62:
	.loc 1 129 2 is_stmt 1
.LBB333:
	.loc 1 36 2
.LBB334:
.LBB335:
	.loc 1 25 2
	.loc 1 27 2
	.loc 1 27 29 is_stmt 0
	li	a5,255
	sw	a5,72(a2)
	.loc 1 29 7
	li	a3,1677725696
.L38:
	.loc 1 28 2 is_stmt 1
	.loc 1 29 3
	.loc 1 29 7 is_stmt 0
	lw	a5,76(a3)
.LVL63:
	.loc 1 30 13 is_stmt 1
	blt	a5,zero,.L38
	.loc 1 31 2
.LVL64:
.LBE335:
.LBE334:
.LBE333:
	.loc 1 130 2
.LBB336:
	.loc 1 36 2
.LBB337:
.LBB338:
	.loc 1 25 2
	.loc 1 27 2
	.loc 1 27 29 is_stmt 0
	li	a5,255
	sw	a5,72(a3)
	.loc 1 29 7
	li	a3,1677725696
.L39:
	.loc 1 28 2 is_stmt 1
	.loc 1 29 3
	.loc 1 29 7 is_stmt 0
	lw	a5,76(a3)
.LVL65:
	.loc 1 30 13 is_stmt 1
	blt	a5,zero,.L39
	.loc 1 31 2
.LVL66:
.LBE338:
.LBE337:
.LBE336:
	.loc 1 131 2
.LBB339:
	.loc 1 36 2
.LBB340:
.LBB341:
	.loc 1 25 2
	.loc 1 27 2
	.loc 1 27 29 is_stmt 0
	li	a5,255
	sw	a5,72(a3)
	.loc 1 29 7
	li	a3,1677725696
.L40:
	.loc 1 28 2 is_stmt 1
	.loc 1 29 3
	.loc 1 29 7 is_stmt 0
	lw	a5,76(a3)
.LVL67:
	.loc 1 30 13 is_stmt 1
	blt	a5,zero,.L40
	.loc 1 31 2
.LVL68:
.LBE341:
.LBE340:
.LBE339:
	.loc 1 132 2
.LBB342:
.LBB343:
	.loc 1 68 2
.LBB344:
	.loc 1 36 2
.LBB345:
.LBB346:
	.loc 1 25 2
	.loc 1 27 2
	.loc 1 27 29 is_stmt 0
	li	a5,255
	sw	a5,72(a3)
	.loc 1 29 7
	li	s0,1677725696
.L41:
	.loc 1 28 2 is_stmt 1
	.loc 1 29 3
	.loc 1 29 7 is_stmt 0
	lw	a5,76(s0)
.LVL69:
	.loc 1 30 13 is_stmt 1
	blt	a5,zero,.L41
	.loc 1 31 2
.LVL70:
.LBE346:
.LBE345:
.LBE344:
	.loc 1 69 2
	.loc 1 69 29 is_stmt 0
	sw	zero,24(s0)
.LBE343:
.LBE342:
	.loc 1 133 2 is_stmt 1
.LVL71:
.LBE326:
.LBE325:
	.loc 1 217 18 is_stmt 0
	bne	a4,zero,.L28
.LBB347:
.LBB348:
	.loc 1 138 2 is_stmt 1
	.loc 1 139 2
	lla	a0,.LC6
	call	kputs
.LVL72:
	.loc 1 140 2
	.loc 1 140 8 is_stmt 0
	li	a2,21
	li	a1,512
	li	a0,80
	call	sd_cmd
.LVL73:
.LBB349:
.LBB350:
.LBB351:
.LBB352:
.LBB353:
	.loc 1 27 29
	li	a4,255
	sw	a4,72(s0)
.LBE353:
.LBE352:
.LBE351:
.LBE350:
.LBE349:
	.loc 1 140 8
	mv	a5,a0
.LVL74:
	.loc 1 141 2 is_stmt 1
.LBB358:
.LBB357:
	.loc 1 68 2
.LBB356:
	.loc 1 36 2
.LBB355:
.LBB354:
	.loc 1 25 2
	.loc 1 27 2
	.loc 1 29 7 is_stmt 0
	li	s0,1677725696
.L42:
	.loc 1 28 2 is_stmt 1
	.loc 1 29 3
	.loc 1 29 7 is_stmt 0
	lw	a4,76(s0)
.LVL75:
	.loc 1 30 13 is_stmt 1
	blt	a4,zero,.L42
	.loc 1 31 2
.LVL76:
.LBE354:
.LBE355:
.LBE356:
	.loc 1 69 2
	.loc 1 69 29 is_stmt 0
	sw	zero,24(s0)
.LBE357:
.LBE358:
	.loc 1 142 2 is_stmt 1
.LVL77:
.LBE348:
.LBE347:
	.loc 1 218 17 is_stmt 0
	bne	a5,zero,.L28
.LBB359:
.LBB360:
	.loc 1 162 2 is_stmt 1
.LVL78:
	.loc 1 163 2
	.loc 1 164 2
	.loc 1 166 2
	lla	a0,.LC7
	call	kputs
.LVL79:
	.loc 1 167 2
	lla	a0,.LC8
	call	kprintf
.LVL80:
	.loc 1 169 2
	.loc 1 169 29 is_stmt 0
	li	a5,3
	sw	a5,0(s0)
	.loc 1 170 2 is_stmt 1
	.loc 1 170 6 is_stmt 0
	li	a2,225
	li	a1,0
	li	a0,82
	call	sd_cmd
.LVL81:
	.loc 1 170 5
	bne	a0,zero,.L92
.LBB361:
.LBB362:
.LBB363:
.LBB364:
	.loc 1 150 22
	li	a7,8192
.LBE364:
.LBE363:
.LBE362:
.LBE361:
	.loc 1 163 7
	li	t6,53248
	.loc 1 162 20
	li	a6,1342177280
.LBB405:
.LBB377:
.LBB378:
.LBB379:
	.loc 1 27 29
	li	a2,1677725696
	li	t0,255
	li	a0,255
.LBE379:
.LBE378:
.LBE377:
	.loc 1 180 21
	li	t4,254
.LBB386:
.LBB383:
.LBB380:
	.loc 1 29 7
	li	s0,1677725696
.LBE380:
.LBE383:
.LBE386:
.LBB387:
.LBB368:
.LBB365:
	.loc 1 150 22
	addi	a7,a7,-32
.LBE365:
.LBE368:
.LBE387:
.LBB388:
.LBB389:
	.file 2 "kprintf.h"
	.loc 2 27 3
	li	t3,1677721600
	li	t5,8
.LBE389:
.LBE388:
	.loc 1 198 17
	lla	ra,spinner
.LBE405:
	.loc 1 200 15
	li	t2,1369440256
.LVL82:
.L43:
	.loc 1 174 2 is_stmt 1
.LBB406:
	.loc 1 175 3
	.loc 1 176 3
	.loc 1 178 3
	.loc 1 179 3
	.loc 1 180 3
.LBB391:
.LBB384:
.LBB381:
	.loc 1 27 29 is_stmt 0
	addi	a3,a2,72
.L46:
.LBE381:
.LBE384:
.LBE391:
	.loc 1 180 21 is_stmt 1
.LBB392:
	.loc 1 36 2
.LVL83:
.LBB385:
.LBB382:
	.loc 1 25 2
	.loc 1 27 2
	.loc 1 27 29 is_stmt 0
	sw	a0,0(a3)
.L45:
	.loc 1 28 2 is_stmt 1
	.loc 1 29 3
	.loc 1 29 7 is_stmt 0
	lw	a5,76(a2)
	sext.w	a4,a5
.LVL84:
	.loc 1 30 13 is_stmt 1
	blt	a5,zero,.L45
	.loc 1 31 2
.LVL85:
.LBE382:
.LBE385:
.LBE392:
	.loc 1 180 21 is_stmt 0
	andi	a4,a4,0xff
	bne	a4,t4,.L46
	mv	a1,a6
	.loc 1 178 7
	li	a3,0
	addi	a6,a6,512
.LVL86:
.LBB393:
.LBB369:
.LBB370:
.LBB371:
	.loc 1 27 29
	addi	t1,a2,72
.LVL87:
.L48:
.LBE371:
.LBE370:
.LBE369:
.LBE393:
	.loc 1 181 3 is_stmt 1
.LBB394:
	.loc 1 182 4
.LBB374:
	.loc 1 36 2
.LBB373:
.LBB372:
	.loc 1 25 2
	.loc 1 27 2
	.loc 1 27 29 is_stmt 0
	sw	a0,0(t1)
.L47:
	.loc 1 28 2 is_stmt 1
	.loc 1 29 3
	.loc 1 29 7 is_stmt 0
	lw	a5,76(a2)
	sext.w	a4,a5
.LVL88:
	.loc 1 30 13 is_stmt 1
	blt	a5,zero,.L47
	.loc 1 31 2
	slliw	a5,a3,8
	srliw	a3,a3,8
.LVL89:
	or	a5,a5,a3
	slli	a5,a5,48
	.loc 1 31 9 is_stmt 0
	andi	a4,a4,0xff
.LVL90:
.LBE372:
.LBE373:
.LBE374:
	.loc 1 183 4 is_stmt 1
	srli	a5,a5,48
.LBB375:
.LBB366:
	.loc 1 147 6 is_stmt 0
	xor	a5,a4,a5
	.loc 1 148 9
	srliw	a3,a5,4
	andi	a3,a3,15
	xor	a5,a5,a3
	.loc 1 149 13
	slliw	a3,a5,12
	.loc 1 149 6
	xor	a5,a5,a3
	.loc 1 150 22
	slliw	a3,a5,16
	srliw	a3,a3,16
	slliw	a3,a3,5
	and	a3,a7,a3
	.loc 1 150 6
	xor	a5,a5,a3
	slli	a3,a5,48
.LBE366:
.LBE375:
	.loc 1 183 6
	addi	s1,a1,1
.LVL91:
	.loc 1 183 9
	sb	a4,0(a1)
	.loc 1 184 4 is_stmt 1
.LVL92:
.LBB376:
.LBB367:
	.loc 1 146 2
	.loc 1 147 2
	.loc 1 148 2
	.loc 1 149 2
	.loc 1 150 2
	.loc 1 150 6 is_stmt 0
	srli	a3,a3,48
.LVL93:
	.loc 1 151 2 is_stmt 1
.LBE367:
.LBE376:
.LBE394:
	.loc 1 185 16
	beq	s1,a6,.L93
.LBB395:
	.loc 1 183 6 is_stmt 0
	mv	a1,s1
	j	.L48
.L93:
.LBE395:
	.loc 1 187 3 is_stmt 1
.LBB396:
	.loc 1 36 2
.LVL94:
.LBB397:
.LBB398:
	.loc 1 25 2
	.loc 1 27 2
	.loc 1 27 29 is_stmt 0
	sw	t0,72(s0)
.LVL95:
.L49:
	.loc 1 28 2 is_stmt 1
	.loc 1 29 3
	.loc 1 29 7 is_stmt 0
	lw	a5,76(a2)
	sext.w	a4,a5
.LVL96:
	.loc 1 30 13 is_stmt 1
	blt	a5,zero,.L49
	.loc 1 31 2
.LVL97:
.LBE398:
.LBE397:
.LBE396:
	.loc 1 187 24 is_stmt 0
	andi	a4,a4,0xff
	.loc 1 187 11
	slliw	a4,a4,8
	slli	a4,a4,48
	srli	a4,a4,48
.LVL98:
	.loc 1 188 3 is_stmt 1
.LBB399:
	.loc 1 36 2
.LBB400:
.LBB401:
	.loc 1 25 2
	.loc 1 27 2
	.loc 1 27 29 is_stmt 0
	sw	t0,72(a2)
.L50:
	.loc 1 28 2 is_stmt 1
	.loc 1 29 3
	.loc 1 29 7 is_stmt 0
	lw	a5,76(a2)
	sext.w	a1,a5
.LVL99:
	.loc 1 30 13 is_stmt 1
	blt	a5,zero,.L50
	.loc 1 31 2
.LVL100:
.LBE401:
.LBE400:
.LBE399:
	.loc 1 190 3
	.loc 1 188 11 is_stmt 0
	andi	a5,a1,0xff
	.loc 1 190 6
	or	a5,a5,a4
	bne	a5,a3,.L94
	.loc 1 196 3 is_stmt 1
	.loc 1 196 7 is_stmt 0
	andi	a5,t6,63
	.loc 1 196 6
	beq	a5,zero,.L54
.LVL101:
.L53:
.LBE406:
	.loc 1 200 15 is_stmt 1
	addi	t6,t6,-1
.LVL102:
	bne	s1,t2,.L43
	.loc 1 164 6 is_stmt 0
	li	s0,0
.LVL103:
.L52:
	.loc 1 201 2 is_stmt 1
.LBB407:
.LBB408:
	.loc 1 68 2
.LBB409:
	.loc 1 36 2
.LBB410:
.LBB411:
	.loc 1 25 2
	.loc 1 27 2
	.loc 1 27 29 is_stmt 0
	li	a5,1677725696
	li	a4,255
	sw	a4,72(a5)
	.loc 1 29 7
	li	s1,1677725696
.LVL104:
.L56:
	.loc 1 28 2 is_stmt 1
	.loc 1 29 3
	.loc 1 29 7 is_stmt 0
	lw	a5,76(s1)
.LVL105:
	.loc 1 30 13 is_stmt 1
	blt	a5,zero,.L56
	.loc 1 31 2
.LVL106:
.LBE411:
.LBE410:
.LBE409:
	.loc 1 69 2
	.loc 1 69 29 is_stmt 0
	sw	zero,24(s1)
.LBE408:
.LBE407:
	.loc 1 203 2 is_stmt 1
	li	a2,1
	li	a1,0
	li	a0,76
	call	sd_cmd
.LVL107:
	.loc 1 204 2
.LBB412:
.LBB413:
	.loc 1 68 2
.LBB414:
	.loc 1 36 2
.LBB415:
.LBB416:
	.loc 1 25 2
	.loc 1 27 2
	.loc 1 27 29 is_stmt 0
	li	a5,255
	sw	a5,72(s1)
	.loc 1 29 7
	li	a5,1677725696
.L57:
	.loc 1 28 2 is_stmt 1
	.loc 1 29 3
	.loc 1 29 7 is_stmt 0
	lw	a4,76(a5)
.LVL108:
	.loc 1 30 13 is_stmt 1
	blt	a4,zero,.L57
	.loc 1 31 2
.LVL109:
.LBE416:
.LBE415:
.LBE414:
	.loc 1 69 2
	.loc 1 69 29 is_stmt 0
	sw	zero,24(a5)
.LBE413:
.LBE412:
	.loc 1 205 2 is_stmt 1
	lla	a0,.LC10
	call	kputs
.LVL110:
	.loc 1 206 2
.LBE360:
.LBE359:
	.loc 1 219 17 is_stmt 0
	bne	s0,zero,.L28
	.loc 1 225 2 is_stmt 1
	lla	a0,.LC12
	call	kputs
.LVL111:
	.loc 1 227 2
 #APP
# 227 "sd.c" 1
	fence.i
# 0 "" 2
	.loc 1 228 2
	.loc 1 228 9 is_stmt 0
 #NO_APP
	j	.L59
.LVL112:
.L54:
.LBB424:
.LBB423:
.LBB417:
.LBB402:
.LBB390:
	.loc 2 25 2 is_stmt 1
	.loc 2 26 2
	.loc 2 27 3
 #APP
# 27 "kprintf.h" 1
	amoor.w a5, t5, 0(t3)

# 0 "" 2
 #NO_APP
	sext.w	a5,a5
.LVL113:
	.loc 2 31 13
	blt	a5,zero,.L54
.LVL114:
.LBE390:
.LBE402:
	.loc 1 198 4
	.loc 1 198 18 is_stmt 0
	srai	a5,t6,6
	andi	a5,a5,3
	.loc 1 198 17
	add	a5,ra,a5
	lbu	a4,0(a5)
.LVL115:
.L55:
.LBB403:
.LBB404:
	.loc 2 25 2 is_stmt 1
	.loc 2 26 2
	.loc 2 27 3
 #APP
# 27 "kprintf.h" 1
	amoor.w a5, a4, 0(t3)

# 0 "" 2
 #NO_APP
	sext.w	a5,a5
.LVL116:
	.loc 2 31 13
	blt	a5,zero,.L55
	j	.L53
.LVL117:
.L94:
.LBE404:
.LBE403:
	.loc 1 191 4
	lla	a0,.LC9
	call	kputs
.LVL118:
	.loc 1 192 4
	.loc 1 193 4
	.loc 1 192 7 is_stmt 0
	li	s0,1
	.loc 1 193 4
	j	.L52
.LVL119:
.L92:
.LBE417:
	.loc 1 171 3 is_stmt 1
.LBB418:
.LBB419:
	.loc 1 68 2
.LBB420:
	.loc 1 36 2
.LBB421:
.LBB422:
	.loc 1 25 2
	.loc 1 27 2
	.loc 1 27 29 is_stmt 0
	li	a5,255
	sw	a5,72(s0)
	.loc 1 29 7
	li	a5,1677725696
.L44:
	.loc 1 28 2 is_stmt 1
	.loc 1 29 3
	.loc 1 29 7 is_stmt 0
	lw	a4,76(a5)
.LVL120:
	.loc 1 30 13 is_stmt 1
	blt	a4,zero,.L44
	.loc 1 31 2
.LVL121:
.LBE422:
.LBE421:
.LBE420:
	.loc 1 69 2
	.loc 1 69 29 is_stmt 0
	sw	zero,24(a5)
.LBE419:
.LBE418:
	.loc 1 172 3 is_stmt 1
.LVL122:
	j	.L28
.LBE423:
.LBE424:
	.cfi_endproc
.LFE14:
	.size	main, .-main
	.section	.srodata,"a"
	.align	3
	.type	spinner, @object
	.size	spinner, 4
spinner:
	.ascii	"-/|\\"
	.text
.Letext0:
	.file 3 "/home/zdd/opt/riscv/riscv64-unknown-elf/include/machine/_default_types.h"
	.file 4 "/home/zdd/opt/riscv/riscv64-unknown-elf/include/sys/_stdint.h"