
sdboot.elf:     file format elf64-littleriscv
sdboot.elf
architecture: riscv:rv64, flags 0x00000112:
EXEC_P, HAS_SYMS, D_PAGED
start address 0x0000000000010000

Program Header:
    LOAD off    0x0000000000001000 vaddr 0x0000000000010000 paddr 0x0000000000010000 align 2**12
         filesz 0x00000000000008b2 memsz 0x00000000000008b2 flags r-x
    LOAD off    0x00000000000018b8 vaddr 0x00000000000108b8 paddr 0x00000000000108b8 align 2**12
         filesz 0x00000000000016fc memsz 0x00000000000016fc flags rw-
    LOAD off    0x0000000000003000 vaddr 0x0000000080000000 paddr 0x0000000080000000 align 2**12
         filesz 0x0000000000000000 memsz 0x0000000000000000 flags rw-

Sections:
Idx Name          Size      VMA               LMA               File off  Algn
  0 .text         000008b2  0000000000010000  0000000000010000  00001000  2**1
                  CONTENTS, ALLOC, LOAD, READONLY, CODE
  1 .rodata       000016f8  00000000000108b8  00000000000108b8  000018b8  2**3
                  CONTENTS, ALLOC, LOAD, READONLY, DATA
  2 .sdata        00000004  0000000000011fb0  0000000000011fb0  00002fb0  2**3
                  CONTENTS, ALLOC, LOAD, DATA
  3 .bss          00000000  0000000080000000  0000000080000000  00003000  2**3
                  ALLOC
  4 .debug_line   000009f3  0000000000000000  0000000000000000  00002fb4  2**0
                  CONTENTS, READONLY, DEBUGGING
  5 .debug_info   000018bb  0000000000000000  0000000000000000  000039a7  2**0
                  CONTENTS, READONLY, DEBUGGING
  6 .debug_abbrev 00000419  0000000000000000  0000000000000000  00005262  2**0
                  CONTENTS, READONLY, DEBUGGING
  7 .debug_aranges 000000a0  0000000000000000  0000000000000000  00005680  2**4
                  CONTENTS, READONLY, DEBUGGING
  8 .debug_str    0000023c  0000000000000000  0000000000000000  00005720  2**0
                  CONTENTS, READONLY, DEBUGGING
  9 .debug_loc    00001321  0000000000000000  0000000000000000  0000595c  2**0
                  CONTENTS, READONLY, DEBUGGING
 10 .debug_ranges 00000470  0000000000000000  0000000000000000  00006c7d  2**0
                  CONTENTS, READONLY, DEBUGGING
 11 .comment      00000011  0000000000000000  0000000000000000  000070ed  2**0
                  CONTENTS, READONLY
 12 .debug_frame  000000e8  0000000000000000  0000000000000000  00007100  2**3
                  CONTENTS, READONLY, DEBUGGING
SYMBOL TABLE:
0000000000010000 l    d  .text	0000000000000000 .text
00000000000108b8 l    d  .rodata	0000000000000000 .rodata
0000000000011fb0 l    d  .sdata	0000000000000000 .sdata
0000000080000000 l    d  .bss	0000000000000000 .bss
0000000000000000 l    d  .debug_line	0000000000000000 .debug_line
0000000000000000 l    d  .debug_info	0000000000000000 .debug_info
0000000000000000 l    d  .debug_abbrev	0000000000000000 .debug_abbrev
0000000000000000 l    d  .debug_aranges	0000000000000000 .debug_aranges
0000000000000000 l    d  .debug_str	0000000000000000 .debug_str
0000000000000000 l    d  .debug_loc	0000000000000000 .debug_loc
0000000000000000 l    d  .debug_ranges	0000000000000000 .debug_ranges
0000000000000000 l    d  .comment	0000000000000000 .comment
0000000000000000 l    d  .debug_frame	0000000000000000 .debug_frame
0000000000000000 l    df *ABS*	0000000000000000 /tmp/ccAQKHOc.o
00000000000108b8 l       .rodata	0000000000000000 dtb
0000000000000000 l    df *ABS*	0000000000000000 sd.c
0000000000010094 l     F .text	00000000000000c0 sd_cmd
0000000000011fb0 l     O .sdata	0000000000000004 spinner
0000000000000000 l    df *ABS*	0000000000000000 kprintf.c
0000000080000000 g       .bss	0000000000000000 _ebss
0000000080100000 g       *ABS*	0000000000000000 _sp
0000000000010000 g       .text	0000000000000000 _prog_start
0000000000010154 g     F .text	00000000000005c0 main
0000000000010714 g     F .text	0000000000000044 kputs
0000000000010758 g     F .text	000000000000011a kprintf


Contents of section .text:
 10000 13098000 73104930 93040000 732940f1  ....s.I0....s)@.
 10010 63982403 37810800 1b01f1ff 1311c100  c.$.7...........
 10020 ef004013 b7040002 13091000 23a02401  ..@.........#.$.
 10030 93844400 37090002 1b090908 e3c624ff  ..D.7.........$.
 10040 73005010 73294034 13798900 e30a09fe  s.P.s)@4.y......
 10050 b7040002 732940f1 13192900 33099900  ....s)@...).3...
 10060 23200900 03a90400 e31e09fe 93844400  # ............D.
 10070 37090002 1b090908 e3c624ff 732540f1  7.........$.s%@.
 10080 97150000 93858583 9b041000 9394f401  ................
 10090 67800400 411106e4 22e0b717 00640947  g...A..."....d.G
 100a0 98cf1307 f00fb8c7 37170064 7c47e3cf  ........7..d|G..
 100b0 07fe0125 28c73717 00647c47 e3cf07fe  ...%(.7..d|G....
 100c0 9bd78501 3cc73717 00647c47 e3cf07fe  ....<.7..d|G....
 100d0 23240704 37170064 7c47e3cf 07fe9bd7  #$..7..d|G......
 100e0 850093f7 f70f3cc7 37170064 7c47e3cf  ......<.7..d|G..
 100f0 07fe93f5 f50f2cc7 37170064 7c47e3cf  ......,.7..d|G..
 10100 07fe9b07 06003cc7 37170064 7c47e3cf  ......<.7..d|G..
 10110 07feb717 00641307 803e9385 87041306  .....d...>......
 10120 f00f90c1 e0470124 e34e04fe 9b168401  .....G.$.N......
 10130 9bd68641 63da0600 7d1765f7 17250000  ...Ac...}.e..%..
 10140 1305c5b1 ef00005d 1375f40f a2600264  .......].u...`.d
 10150 41018280 197186fc b7070064 a2f8a6f4  A....q.....d....
 10160 caf0ceec d2e8d6e4 dae05efc 62f866f4  ..........^.b.f.
 10170 6af06eec 854484c7 17260000 130606af  j.n..D...&......
 10180 97250000 938585af 17250000 130505b0  .%.......%......
 10190 37040051 ef00405c 4c78507c 17250000  7..Q..@\LxP|.%..
 101a0 1305c5b1 ef00405b a1473cc0 4c78507c  ......@[.G<.LxP|
 101b0 17250000 130585b3 ef00005a b787c900  .%.........Z....
 101c0 9b873766 1cc81048 85451725 00001305  ..7f...H.E.%....
 101d0 65b6ef00 60581048 81451725 00001305  e...`X.H.E.%....
 101e0 65b5ef00 6057b707 a4612320 f4101c50  e...`W...a# ...P
 101f0 13971702 6341071e 10508545 17250000  ....cA...P.E.%..
 10200 1305c5b5 ef004055 10508145 17250000  ......@U.P.E.%..
 10210 1305c5b4 ef004054 1c50858b 63990716  ......@T.P..c...
 10220 b7570900 1ccc9307 803e2320 f4209307  .W.......># . ..
 10230 d0042324 f4202328 9420232c 94202320  ..#$. #(. #,. # 
 10240 94220c50 17250000 130545be ef00c050  .".P.%....E....P
 10250 17250000 130505c1 ef00c04b 8d451725  .%.........K.E.%
 10260 00001305 a5c0ef00 204f0d47 b7170064  ........ O.G...d
 10270 98c33714 006498cf 13068404 29479306  ..7..d......)G..
 10280 f00f14c2 7c44e3cf 07fe7d17 7dfb1725  ....|D....}.}..%
 10290 00001305 25c0232c 0400ef00 a0471306  ....%.#,.....G..
 102a0 50098145 13050004 eff0dfde 9307f00f  P..E............
 102b0 3cc43714 00647c44 e3cf07fe 232c0400  <.7..d|D....#,..
 102c0 85476310 f50a1725 00001305 25bdef00  .Gc....%....%...
 102d0 60441306 70089305 a01a1305 8004eff0  `D..p...........
 102e0 7fdb1b07 05007d17 9307f00f 3336e000  ......}.....36..
 102f0 3cc43717 00647c47 e3cf07fe 9307f00f  <.7..d|G........
 10300 3cc73717 00647c47 e3cf07fe 9307f00f  <.7..d|G........
 10310 3cc7b716 0064fc46 8127e3ce 07fe13f7  <....d.F.'......
 10320 f7007d17 9307f00f bcc63337 e000b716  ..}.......37....
 10330 0064fc46 8127e3ce 07fe93f7 f70f9387  .d.F.'..........
 10340 67f5518f b337f000 3366f700 9307f00f  g.Q..7..3f......
 10350 bcc63717 00647c47 e3cf07fe 232c0700  ..7..d|G....#,..
 10360 45c61725 00001305 e5beef00 a03a0545  E..%.........:.E
 10370 e6704674 a6740679 e669466a a66a066b  .pFt.t.y.iFj.j.k
 10380 e27b427c a27c027d e26d0961 82800c50  .{B|.|.}.m.a...P
 10390 17250000 130505a3 ef00003c 85679b87  .%.........<.g..
 103a0 87382320 f4209307 90612324 f4208947  .8# . ...a#$. .G
 103b0 2328f420 232cf420 91472320 f422c567  #(. #,. .G# .".g
 103c0 9b871702 1ccc0c50 17250000 130505a3  .......P.%......
 103d0 ef008038 b5bdb757 09001ccc 9307803e  ...8...W.......>
 103e0 2320f420 9307d004 2324f420 23289420  # . ....#$. #(. 
 103f0 232c9420 23209422 0c501725 00001305  #,. # .".P.%....
 10400 e598ef00 6035a9b5 17250000 130585a9  ....`5...%......
 10410 ef004030 37140064 1309f00f 85441306  ..@07..d.....D..
 10420 50068145 13057007 eff0dfc6 23242405  P..E..p.....#$$.
 10430 7c44e3cf 07fe232c 04001306 7007b705  |D....#,....p...
 10440 00401305 9006eff0 ffc4e30a 95fce31a  .@..............
 10450 05f01725 00001305 65a5ef00 a02b1306  ...%....e....+..
 10460 d00f8145 1305a007 eff0dfc2 1b070500  ...E............
 10470 9307f00f 3337e000 3cc4b716 0064fc46  ....37..<....d.F
 10480 8127e3ce 07fe93f7 f70f9bd7 774093c7  .'..........w@..
 10490 1700d98f 1307f00f b8c63717 00647447  ..........7..dtG
 104a0 e3cf06fe 9306f00f 34c73717 00647447  ........4.7..dtG
 104b0 e3cf06fe 9306f00f 34c73717 00647447  ........4.7..dtG
 104c0 e3cf06fe 9306f00f 34c73714 00647844  ........4.7..dxD
 104d0 e34f07fe 232c0400 e39507e8 17250000  .O..#,.......%..
 104e0 1305459d ef000023 55469305 00201305  ..E....#UF... ..
 104f0 0005eff0 3fba9307 f00f3cc4 37140064  ....?.....<.7..d
 10500 7c44e3cf 07fe232c 0400e31c 05e41725  |D....#,.......%
 10510 00001305 a59aef00 e01f1306 100e8145  ...............E
 10520 13052005 eff01fb7 01cd9307 f00f3cc4  .. ...........<.
 10530 b7170064 f847e34f 07fe23ac 070015b5  ...d.G.O..#.....
 10540 930bd040 854a0969 93975b01 356bfe0a  ...@.J.i..[.5k..
 10550 b71d0064 130cf00f 1304f00f 01199729  ...d...........)
 10560 00009389 29963ee4 93868d04 1307e00f  ....).>.........
 10570 80c283a7 cd048127 e3cd07fe 93f7f70f  .......'........
 10580 e398e7fe 93840a20 d686014d 138a8d04  ....... ...M....
 10590 23208a00 83a5cd04 8125e3cd 05fe1b57  # .......%.....W
 105a0 8d009317 8d0013f6 f50fd98f b18f1397  ................
 105b0 07034193 9b574700 bd8bb98f 1397c700  ..A..WG.........
 105c0 b98f9b97 07019bd7 07411b97 07011b57  .........A.....W
 105d0 07011b17 57003377 2701b98f 139d0703  ....W.3w'.......
 105e0 135d0d03 9b0c0d00 938b1600 2380c600  .]..........#...
 105f0 93f5f50f 66864e85 ef000016 63847401  ....f.N.....c.t.
 10600 de8679b7 b7170064 1387fa1f 23a48705  ..y....d....#...
 10610 a68a83a7 cd048127 e3cd07fe 13faf70f  .......'........
 10620 220a23a4 8d0583a7 cd048127 e3cd07fe  ".#........'....
 10630 83451700 93f7f70f 336afa00 5287e686  .E......3j..R...
 10640 1386c4ff 17250000 13054589 ef00c010  .....%....E.....
 10650 63884c01 17250000 1305458a ef00800b  c.L..%....E.....
 10660 9377fb03 bdcba267 7d1be39f f4eeb717  .w.....g}.......
 10670 00641307 f00fb8c7 37140064 7c44e3cf  .d......7..d|D..
 10680 07fe232c 04000546 81451305 c004eff0  ..#,...F.E......
 10690 7fa09307 f00f3cc4 b7170064 f847e34f  ......<....d.G.O
 106a0 07fe23ac 07001725 00001305 a586ef00  ..#....%........
 106b0 60061725 00001305 6586ef00 a0058547  `..%....e......G
 106c0 fe078c63 90671725 00001305 a585ef00  ...c.g.%........
 106d0 a0080f10 00000145 61b9b707 00642147  .......Ea....d!G
 106e0 afa6e740 13960602 e34c06fe 93576b40  ...@.....L...Wk@
 106f0 13f73700 97270000 9387c78b ba9703c7  ..7..'..........
 10700 0700b707 0064afa6 e7401396 0602e34c  .....d...@.....L
 10710 06fe91bf 03470500 09cfb707 0064afa6  .....G.......d..
 10720 e7401396 0602e34c 06fe0505 03470500  .@.....L.....G..
 10730 7df7b707 00643547 afa6e740 13960602  }....d5G...@....
 10740 e34c06fe b7070064 2947afa6 e7401396  .L.....d)G...@..
 10750 0602e34c 06fe8280 5d713efc 3c082eec  ...L....]q>.<...
 10760 32f0c2e0 c6e43ee4 36f43af8 814e8145  2.....>.6.:..N.E
 10770 01461303 5002b707 0064d548 17180000  .F..P....d.H....
 10780 1308c87d 254e0505 0347f5ff 15c325c6  ...}%N...G....%.
 10790 1b07d7f9 1377f70f 63ebe804 0a074297  .....w..c.....B.
 107a0 18434297 02870505 0347f5ff b28565f3  .CB......G....e.
 107b0 61618280 22679306 870036e4 c5c5033f  aa.."g....6....?
 107c0 07001306 c003b356 cf00bd8a 93f5f60f  .......V........
 107d0 13877505 6344de00 13870503 afa6e740  ..u.cD.........@
 107e0 93950602 e3cc05fe 7116e35e 06fc814e  ........q..^...N
 107f0 81450146 49bf6314 67000546 69b7afa6  .E.FI.c.g..Fi...
 10800 e740139f 0602e350 0ff8afa6 e740139f  .@.....P.....@..
 10810 0602e346 0ffe85bf 22671063 21073ae4  ...F...."g.c!.:.
 10820 03470600 69d7afa6 e7409395 0602e3cc  .G..i....@......
 10830 05fe0506 03470600 7df7814e 81450146  .....G..}..N.E.F
 10840 99b7b28e 89b7a266 03c70600 a10636e4  .......f......6.
 10850 afa6e740 13960602 e34c06fe 814e8145  ...@.....L...N.E
 10860 014615b7 036f0700 1146e39e 0ef47146  .F...o...F....qF
 10870 99bf0000 00000000 00000000 00000000  ................
 10880 00000000 00000000 00000000 00000000  ................
 10890 00000000 00000000 00000000 00000000  ................
 108a0 00000000 00000000 00000000 00000000  ................
 108b0 0000                                 ..              
Contents of section .rodata:
 108b8 d00dfeed 0000139f 00000038 00001160  ...........8...`
 108c8 00000028 00000011 00000010 00000000  ...(............
 108d8 0000023f 00001128 00000000 00000000  ...?...(........
 108e8 00000000 00000000 00000001 00000000  ................
 108f8 00000003 00000004 00000000 00000002  ................
 10908 00000003 00000004 0000000f 00000002  ................
 10918 00000003 00000021 0000001b 66726565  .......!....free
 10928 63686970 732c726f 636b6574 63686970  chips,rocketchip
 10938 2d756e6b 6e6f776e 2d646576 00000000  -unknown-dev....
 10948 00000003 0000001d 00000026 66726565  ...........&free
 10958 63686970 732c726f 636b6574 63686970  chips,rocketchip
 10968 2d756e6b 6e6f776e 00000000 00000001  -unknown........
 10978 616c6961 73657300 00000003 00000015  aliases.........
 10988 0000002c 2f736f63 2f736572 69616c40  ...,/soc/serial@
 10998 36343030 30303030 00000000 00000002  64000000........
 109a8 00000001 63686f73 656e0000 00000002  ....chosen......
 109b8 00000001 63707573 00000000 00000003  ....cpus........
 109c8 00000004 00000000 00000001 00000003  ................
 109d8 00000004 0000000f 00000000 00000001  ................
 109e8 63707540 30000000 00000003 00000004  cpu@0...........
 109f8 00000034 00000000 00000003 00000015  ...4............
 10a08 0000001b 73696669 76652c72 6f636b65  ....sifive,rocke
 10a18 74300072 69736376 00000000 00000003  t0.riscv........
 10a28 00000004 00000044 00000040 00000003  .......D...@....
 10a38 00000004 00000057 00000040 00000003  .......W...@....
 10a48 00000004 00000064 00004000 00000003  .......d..@.....
 10a58 00000004 00000071 00000001 00000003  .......q........
 10a68 00000004 0000007c 00000020 00000003  .......|... ....
 10a78 00000004 00000087 63707500 00000003  ........cpu.....
 10a88 00000004 00000093 00000040 00000003  ...........@....
 10a98 00000004 000000a6 00000040 00000003  ...........@....
 10aa8 00000004 000000b3 00004000 00000003  ..........@.....
 10ab8 00000004 000000c0 00000001 00000003  ................
 10ac8 00000004 000000cb 00000020 00000003  ........... ....
 10ad8 0000000b 000000d6 72697363 762c7376  ........riscv,sv
 10ae8 33390000 00000003 00000008 000000df  39..............
 10af8 00000001 00000002 00000003 00000004  ................
 10b08 000000f0 00000000 00000003 0000000b  ................
 10b18 000000f4 72763634 696d6166 64630000  ....rv64imafdc..
 10b28 00000003 00000005 000000fe 6f6b6179  ............okay
 10b38 00000000 00000003 00000004 00000105  ................
 10b48 000f4240 00000003 00000000 00000118  ..B@............
 10b58 00000001 696e7465 72727570 742d636f  ....interrupt-co
 10b68 6e74726f 6c6c6572 00000000 00000003  ntroller........
 10b78 00000004 00000122 00000001 00000003  ......."........
 10b88 0000000f 0000001b 72697363 762c6370  ........riscv,cp
 10b98 752d696e 74630000 00000003 00000000  u-intc..........
 10ba8 00000133 00000003 00000004 00000148  ...3...........H
 10bb8 00000003 00000002 00000002 00000001  ................
 10bc8 63707540 31000000 00000003 00000004  cpu@1...........
 10bd8 00000034 00000000 00000003 00000015  ...4............
 10be8 0000001b 73696669 76652c72 6f636b65  ....sifive,rocke
 10bf8 74300072 69736376 00000000 00000003  t0.riscv........
 10c08 00000004 00000044 00000040 00000003  .......D...@....
 10c18 00000004 00000057 00000040 00000003  .......W...@....
 10c28 00000004 00000064 00004000 00000003  .......d..@.....
 10c38 00000004 00000071 00000001 00000003  .......q........
 10c48 00000004 0000007c 00000020 00000003  .......|... ....
 10c58 00000004 00000087 63707500 00000003  ........cpu.....
 10c68 00000004 00000093 00000040 00000003  ...........@....
 10c78 00000004 000000a6 00000040 00000003  ...........@....
 10c88 00000004 000000b3 00004000 00000003  ..........@.....
 10c98 00000004 000000c0 00000001 00000003  ................
 10ca8 00000004 000000cb 00000020 00000003  ........... ....
 10cb8 0000000b 000000d6 72697363 762c7376  ........riscv,sv
 10cc8 33390000 00000003 00000008 000000df  39..............
 10cd8 00000001 00000002 00000003 00000004  ................
 10ce8 000000f0 00000001 00000003 0000000b  ................
 10cf8 000000f4 72763634 696d6166 64630000  ....rv64imafdc..
 10d08 00000003 00000005 000000fe 6f6b6179  ............okay
 10d18 00000000 00000003 00000004 00000105  ................
 10d28 000f4240 00000003 00000000 00000118  ..B@............
 10d38 00000001 696e7465 72727570 742d636f  ....interrupt-co
 10d48 6e74726f 6c6c6572 00000000 00000003  ntroller........
 10d58 00000004 00000122 00000001 00000003  ......."........
 10d68 0000000f 0000001b 72697363 762c6370  ........riscv,cp
 10d78 752d696e 74630000 00000003 00000000  u-intc..........
 10d88 00000133 00000003 00000004 00000148  ...3...........H
 10d98 00000004 00000002 00000002 00000001  ................
 10da8 63707540 32000000 00000003 00000004  cpu@2...........
 10db8 00000034 00000000 00000003 00000015  ...4............
 10dc8 0000001b 73696669 76652c72 6f636b65  ....sifive,rocke
 10dd8 74300072 69736376 00000000 00000003  t0.riscv........
 10de8 00000004 00000044 00000040 00000003  .......D...@....
 10df8 00000004 00000057 00000040 00000003  .......W...@....
 10e08 00000004 00000064 00004000 00000003  .......d..@.....
 10e18 00000004 00000071 00000001 00000003  .......q........
 10e28 00000004 0000007c 00000020 00000003  .......|... ....
 10e38 00000004 00000087 63707500 00000003  ........cpu.....
 10e48 00000004 00000093 00000040 00000003  ...........@....
 10e58 00000004 000000a6 00000040 00000003  ...........@....
 10e68 00000004 000000b3 00004000 00000003  ..........@.....
 10e78 00000004 000000c0 00000001 00000003  ................
 10e88 00000004 000000cb 00000020 00000003  ........... ....
 10e98 0000000b 000000d6 72697363 762c7376  ........riscv,sv
 10ea8 33390000 00000003 00000008 000000df  39..............
 10eb8 00000001 00000002 00000003 00000004  ................
 10ec8 000000f0 00000002 00000003 0000000b  ................
 10ed8 000000f4 72763634 696d6166 64630000  ....rv64imafdc..
 10ee8 00000003 00000005 000000fe 6f6b6179  ............okay
 10ef8 00000000 00000003 00000004 00000105  ................
 10f08 000f4240 00000003 00000000 00000118  ..B@............
 10f18 00000001 696e7465 72727570 742d636f  ....interrupt-co
 10f28 6e74726f 6c6c6572 00000000 00000003  ntroller........
 10f38 00000004 00000122 00000001 00000003  ......."........
 10f48 0000000f 0000001b 72697363 762c6370  ........riscv,cp
 10f58 752d696e 74630000 00000003 00000000  u-intc..........
 10f68 00000133 00000003 00000004 00000148  ...3...........H
 10f78 00000005 00000002 00000002 00000001  ................
 10f88 63707540 33000000 00000003 00000004  cpu@3...........
 10f98 00000034 00000000 00000003 00000015  ...4............
 10fa8 0000001b 73696669 76652c72 6f636b65  ....sifive,rocke
 10fb8 74300072 69736376 00000000 00000003  t0.riscv........
 10fc8 00000004 00000044 00000040 00000003  .......D...@....
 10fd8 00000004 00000057 00000040 00000003  .......W...@....
 10fe8 00000004 00000064 00004000 00000003  .......d..@.....
 10ff8 00000004 00000071 00000001 00000003  .......q........
 11008 00000004 0000007c 00000020 00000003  .......|... ....
 11018 00000004 00000087 63707500 00000003  ........cpu.....
 11028 00000004 00000093 00000040 00000003  ...........@....
 11038 00000004 000000a6 00000040 00000003  ...........@....
 11048 00000004 000000b3 00004000 00000003  ..........@.....
 11058 00000004 000000c0 00000001 00000003  ................
 11068 00000004 000000cb 00000020 00000003  ........... ....
 11078 0000000b 000000d6 72697363 762c7376  ........riscv,sv
 11088 33390000 00000003 00000008 000000df  39..............
 11098 00000001 00000002 00000003 00000004  ................
 110a8 000000f0 00000003 00000003 0000000b  ................
 110b8 000000f4 72763634 696d6166 64630000  ....rv64imafdc..
 110c8 00000003 00000005 000000fe 6f6b6179  ............okay
 110d8 00000000 00000003 00000004 00000105  ................
 110e8 000f4240 00000003 00000000 00000118  ..B@............
 110f8 00000001 696e7465 72727570 742d636f  ....interrupt-co
 11108 6e74726f 6c6c6572 00000000 00000003  ntroller........
 11118 00000004 00000122 00000001 00000003  ......."........
 11128 0000000f 0000001b 72697363 762c6370  ........riscv,cp
 11138 752d696e 74630000 00000003 00000000  u-intc..........
 11148 00000133 00000003 00000004 00000148  ...3...........H
 11158 00000006 00000002 00000002 00000002  ................
 11168 00000001 6d656d6f 72794038 30303030  ....memory@80000
 11178 30303000 00000003 00000007 00000087  000.............
 11188 6d656d6f 72790000 00000003 00000010  memory..........
 11198 000000f0 00000000 80000000 00000000  ................
 111a8 20000000 00000003 00000004 00000148   ..............H
 111b8 00000002 00000002 00000001 736f6300  ............soc.
 111c8 00000003 00000004 00000000 00000002  ................
 111d8 00000003 00000004 0000000f 00000002  ................
 111e8 00000003 0000002c 0000001b 66726565  .......,....free
 111f8 63686970 732c726f 636b6574 63686970  chips,rocketchip
 11208 2d756e6b 6e6f776e 2d736f63 0073696d  -unknown-soc.sim
 11218 706c652d 62757300 00000003 00000000  ple-bus.........
 11228 00000150 00000001 636c696e 74403230  ...P....clint@20
 11238 30303030 30000000 00000003 0000000d  00000...........
 11248 0000001b 72697363 762c636c 696e7430  ....riscv,clint0
 11258 00000000 00000003 00000040 00000157  ...........@...W
 11268 00000003 00000003 00000003 00000007  ................
 11278 00000004 00000003 00000004 00000007  ................
 11288 00000005 00000003 00000005 00000007  ................
 11298 00000006 00000003 00000006 00000007  ................
 112a8 00000003 00000010 000000f0 00000000  ................
 112b8 02000000 00000000 00010000 00000003  ................
 112c8 00000008 0000016b 636f6e74 726f6c00  .......kcontrol.
 112d8 00000002 00000001 64656275 672d636f  ........debug-co
 112e8 6e74726f 6c6c6572 40300000 00000003  ntroller@0......
 112f8 00000021 0000001b 73696669 76652c64  ...!....sifive,d
 11308 65627567 2d303133 00726973 63762c64  ebug-013.riscv,d
 11318 65627567 2d303133 00000000 00000003  ebug-013........
 11328 00000020 00000157 00000003 0000ffff  ... ...W........
 11338 00000004 0000ffff 00000005 0000ffff  ................
 11348 00000006 0000ffff 00000003 00000010  ................
 11358 000000f0 00000000 00000000 00000000  ................
 11368 00001000 00000003 00000008 0000016b  ...............k
 11378 636f6e74 726f6c00 00000002 00000001  control.........
 11388 6572726f 722d6465 76696365 40333030  error-device@300
 11398 30000000 00000003 0000000e 0000001b  0...............
 113a8 73696669 76652c65 72726f72 30000000  sifive,error0...
 113b8 00000003 00000010 000000f0 00000000  ................
 113c8 00003000 00000000 00001000 00000003  ..0.............
 113d8 00000004 00000148 00000001 00000002  .......H........
 113e8 00000001 6770696f 40363430 30323030  ....gpio@6400200
 113f8 30000000 00000003 00000004 00000175  0..............u
 11408 00000002 00000003 00000004 00000122  ..............."
 11418 00000002 00000003 0000000d 0000001b  ................
 11428 73696669 76652c67 70696f30 00000000  sifive,gpio0....
 11438 00000003 00000000 00000181 00000003  ................
 11448 00000000 00000133 00000003 00000004  .......3........
 11458 00000191 00000007 00000003 00000010  ................
 11468 000001a2 00000004 00000005 00000006  ................
 11478 00000007 00000003 00000010 000000f0  ................
 11488 00000000 64002000 00000000 00001000  ....d. .........
 11498 00000003 00000008 0000016b 636f6e74  ...........kcont
 114a8 726f6c00 00000002 00000001 696e7465  rol.........inte
 114b8 72727570 742d636f 6e74726f 6c6c6572  rrupt-controller
 114c8 40633030 30303030 00000000 00000003  @c000000........
 114d8 00000004 00000122 00000001 00000003  ......."........
 114e8 0000000c 0000001b 72697363 762c706c  ........riscv,pl
 114f8 69633000 00000003 00000000 00000133  ic0............3
 11508 00000003 00000040 00000157 00000003  .......@...W....
 11518 0000000b 00000003 00000009 00000004  ................
 11528 0000000b 00000004 00000009 00000005  ................
 11538 0000000b 00000005 00000009 00000006  ................
 11548 0000000b 00000006 00000009 00000003  ................
 11558 00000010 000000f0 00000000 0c000000  ................
 11568 00000000 04000000 00000003 00000008  ................
 11578 0000016b 636f6e74 726f6c00 00000003  ...kcontrol.....
 11588 00000004 000001ad 00000007 00000003  ................
 11598 00000004 000001c0 00000007 00000003  ................
 115a8 00000004 00000148 00000007 00000002  .......H........
 115b8 00000001 70636940 32303030 30303030  ....pci@20000000
 115c8 30300000 00000003 00000004 00000000  00..............
 115d8 00000003 00000003 00000004 00000122  ..............."
 115e8 00000001 00000003 00000004 0000000f  ................
 115f8 00000002 00000003 0000001a 0000001b  ................
 11608 786c6e78 2c617869 2d706369 652d686f  xlnx,axi-pcie-ho
 11618 73742d31 2e30302e 61000000 00000003  st-1.00.a.......
 11628 00000004 00000087 70636900 00000003  ........pci.....
 11638 00000060 000001cb 00000000 00000000  ...`............
 11648 00000000 00000001 00000008 00000001  ................
 11658 00000000 00000000 00000000 00000002  ................
 11668 00000008 00000002 00000000 00000000  ................
 11678 00000000 00000003 00000008 00000003  ................
 11688 00000000 00000000 00000000 00000004  ................
 11698 00000008 00000004 00000003 00000010  ................
 116a8 000001d9 00000000 00000000 00000000  ................
 116b8 00000007 00000003 00000004 00000191  ................
 116c8 00000007 00000003 00000004 000001a2  ................
 116d8 00000003 00000003 0000001c 00000150  ...............P
 116e8 02000000 00000000 40000000 00000000  ........@.......
 116f8 40000000 00000000 20000000 00000003  @....... .......
 11708 00000010 000000f0 00000020 00000000  ........... ....
 11718 00000000 04000000 00000003 00000008  ................
 11728 0000016b 636f6e74 726f6c00 00000001  ...kcontrol.....
 11738 696e7465 72727570 742d636f 6e74726f  interrupt-contro
 11748 6c6c6572 00000000 00000003 00000004  ller............
 11758 00000000 00000000 00000003 00000004  ................
 11768 00000122 00000001 00000003 00000000  ..."............
 11778 00000133 00000003 00000004 00000148  ...3...........H
 11788 00000008 00000002 00000002 00000001  ................
 11798 726f6d40 31303030 30000000 00000003  rom@10000.......
 117a8 00000010 0000001b 73696669 76652c6d  ........sifive,m
 117b8 61736b72 6f6d3000 00000003 00000010  askrom0.........
 117c8 000000f0 00000000 00010000 00000000  ................
 117d8 00002000 00000003 00000004 0000016b  .. ............k
 117e8 6d656d00 00000002 00000001 73657269  mem.........seri
 117f8 616c4036 34303030 30303000 00000003  al@64000000.....
 11808 00000004 000001ec 00000009 00000003  ................
 11818 0000000d 0000001b 73696669 76652c75  ........sifive,u
 11828 61727430 00000000 00000003 00000004  art0............
 11838 00000191 00000007 00000003 00000004  ................
 11848 000001a2 00000001 00000003 00000010  ................
 11858 000000f0 00000000 64000000 00000000  ........d.......
 11868 00001000 00000003 00000008 0000016b  ...............k
 11878 636f6e74 726f6c00 00000002 00000001  control.........
 11888 73706940 36343030 31303030 00000000  spi@64001000....
 11898 00000003 00000004 00000000 00000001  ................
 118a8 00000003 00000004 0000000f 00000000  ................
 118b8 00000003 00000004 000001ec 00000009  ................
 118c8 00000003 0000000c 0000001b 73696669  ............sifi
 118d8 76652c73 70693000 00000003 00000004  ve,spi0.........
 118e8 00000191 00000007 00000003 00000004  ................
 118f8 000001a2 00000002 00000003 00000010  ................
 11908 000000f0 00000000 64001000 00000000  ........d.......
 11918 00001000 00000003 00000008 0000016b  ...............k
 11928 636f6e74 726f6c00 00000001 6d6d6340  control.....mmc@
 11938 30000000 00000003 0000000d 0000001b  0...............
 11948 6d6d632d 7370692d 736c6f74 00000000  mmc-spi-slot....
 11958 00000003 00000000 000001f3 00000003  ................
 11968 00000004 000000f0 00000000 00000003  ................
 11978 00000004 000001fe 01312d00 00000003  .........1-.....
 11988 00000008 00000210 00000ce4 00000ce4  ................
 11998 00000002 00000002 00000001 746c636c  ............tlcl
 119a8 6b000000 00000003 00000004 0000021f  k...............
 119b8 00000000 00000003 00000004 00000034  ...............4
 119c8 02faf080 00000003 00000006 0000022c  ...............,
 119d8 746c636c 6b000000 00000003 0000000c  tlclk...........
 119e8 0000001b 66697865 642d636c 6f636b00  ....fixed-clock.
 119f8 00000003 00000004 00000148 00000009  ...........H....
 11a08 00000002 00000002 00000002 00000009  ................
 11a18 23616464 72657373 2d63656c 6c730023  #address-cells.#
 11a28 73697a65 2d63656c 6c730063 6f6d7061  size-cells.compa
 11a38 7469626c 65006d6f 64656c00 73657269  tible.model.seri
 11a48 616c3000 636c6f63 6b2d6672 65717565  al0.clock-freque
 11a58 6e637900 642d6361 6368652d 626c6f63  ncy.d-cache-bloc
 11a68 6b2d7369 7a650064 2d636163 68652d73  k-size.d-cache-s
 11a78 65747300 642d6361 6368652d 73697a65  ets.d-cache-size
 11a88 00642d74 6c622d73 65747300 642d746c  .d-tlb-sets.d-tl
 11a98 622d7369 7a650064 65766963 655f7479  b-size.device_ty
 11aa8 70650069 2d636163 68652d62 6c6f636b  pe.i-cache-block
 11ab8 2d73697a 6500692d 63616368 652d7365  -size.i-cache-se
 11ac8 74730069 2d636163 68652d73 697a6500  ts.i-cache-size.
 11ad8 692d746c 622d7365 74730069 2d746c62  i-tlb-sets.i-tlb
 11ae8 2d73697a 65006d6d 752d7479 7065006e  -size.mmu-type.n
 11af8 6578742d 6c657665 6c2d6361 63686500  ext-level-cache.
 11b08 72656700 72697363 762c6973 61007374  reg.riscv,isa.st
 11b18 61747573 0074696d 65626173 652d6672  atus.timebase-fr
 11b28 65717565 6e637900 746c622d 73706c69  equency.tlb-spli
 11b38 74002369 6e746572 72757074 2d63656c  t.#interrupt-cel
 11b48 6c730069 6e746572 72757074 2d636f6e  ls.interrupt-con
 11b58 74726f6c 6c657200 7068616e 646c6500  troller.phandle.
 11b68 72616e67 65730069 6e746572 72757074  ranges.interrupt
 11b78 732d6578 74656e64 65640072 65672d6e  s-extended.reg-n
 11b88 616d6573 00236770 696f2d63 656c6c73  ames.#gpio-cells
 11b98 00677069 6f2d636f 6e74726f 6c6c6572  .gpio-controller
 11ba8 00696e74 65727275 70742d70 6172656e  .interrupt-paren
 11bb8 7400696e 74657272 75707473 00726973  t.interrupts.ris
 11bc8 63762c6d 61782d70 72696f72 69747900  cv,max-priority.
 11bd8 72697363 762c6e64 65760069 6e746572  riscv,ndev.inter
 11be8 72757074 2d6d6170 00696e74 65727275  rupt-map.interru
 11bf8 70742d6d 61702d6d 61736b00 636c6f63  pt-map-mask.cloc
 11c08 6b730064 69736162 6c652d77 70007370  ks.disable-wp.sp
 11c18 692d6d61 782d6672 65717565 6e637900  i-max-frequency.
 11c28 766f6c74 6167652d 72616e67 65730023  voltage-ranges.#
 11c38 636c6f63 6b2d6365 6c6c7300 636c6f63  clock-cells.cloc
 11c48 6b2d6f75 74707574 2d6e616d 65730000  k-output-names..
 11c58 73645f63 6d643a20 74696d65 6f757400  sd_cmd: timeout.
 11c68 31303a34 343a3433 00000000 00000000  10:44:43........
 11c78 4d617220 20372032 30323500 00000000  Mar  7 2025.....
 11c88 496e666f 3a206265 67696e20 21204020  Info: begin ! @ 
 11c98 636f6d70 696c6572 20646174 653a2025  compiler date: %
 11ca8 732c2074 696d653a 2025730d 0a000000  s, time: %s.....
 11cb8 496e666f 3a206368 65636b20 74785f64  Info: check tx_d
 11cc8 66782076 616c7565 2025782c 2072785f  fx value %x, rx_
 11cd8 64667820 76616c75 65202578 0d0a0000  dfx value %x....
 11ce8 496e666f 3a206166 74657220 63666720  Info: after cfg 
 11cf8 6d696720 74616b65 6f766572 2c206368  mig takeover, ch
 11d08 65636b20 74785f64 66782076 616c7565  eck tx_dfx value
 11d18 2025782c 2072785f 64667820 76616c75   %x, rx_dfx valu
 11d28 65202578 0d0a0000 496e666f 3a206366  e %x....Info: cf
 11d38 6720706c 6c207061 72616d65 74657220  g pll parameter 
 11d48 30782578 202d2030 7825780d 0a000000  0x%x - 0x%x.....
 11d58 496e666f 3a207465 73742070 6c6c2073  Info: test pll s
 11d68 74617465 20696e64 65783a20 30782578  tate index: 0x%x
 11d78 202d2030 7825780d 0a000000 00000000   - 0x%x.........
 11d88 496e666f 3a20646f 6e6f7420 6e656564  Info: donot need
 11d98 20737769 74636820 776f726b 20636c6b   switch work clk
 11da8 20746f20 706c6c20 6f757470 75743a20   to pll output: 
 11db8 30782578 00000000 496e666f 3a206265  0x%x....Info: be
 11dc8 67696e20 73776974 63682077 6f726b20  gin switch work 
 11dd8 636c6b20 746f2070 6c6c206f 75747075  clk to pll outpu
 11de8 743a2030 7825780d 0a000000 00000000  t: 0x%x.........
 11df8 496e666f 3a20656e 64207377 69746368  Info: end switch
 11e08 20776f72 6b20636c 6b20746f 20706c6c   work clk to pll
 11e18 206f7574 7075743a 20307825 780d0a00   output: 0x%x...
 11e28 496e666f 3a20646f 6e6f7420 6e656564  Info: donot need
 11e38 20737769 74636820 776f726b 20636c6b   switch work clk
 11e48 20746f20 706c6c20 6f757470 75743a20   to pll output: 
 11e58 30782578 0d0a0000 494e4954 0a000000  0x%x....INIT....
 11e68 496e666f 3a206366 67205350 495f5245  Info: cfg SPI_RE
 11e78 475f5343 4b444956 2076616c 75652025  G_SCKDIV value %
 11e88 780d0a00 00000000 434d4430 00000000  x.......CMD0....
 11e98 434d4438 00000000 41434d44 34310000  CMD8....ACMD41..
 11ea8 434d4435 38000000 434d4431 36000000  CMD58...CMD16...
 11eb8 434d4431 38000000 64617461 2025782c  CMD18...data %x,
 11ec8 20637263 20257820 0d0a0000 00000000   crc %x ........
 11ed8 64617461 20257820 61742025 782c2063  data %x at %x, c
 11ee8 72632025 78202d20 25780d0a 00000000  rc %x - %x......
 11ef8 082d2043 5243206d 69736d61 74636820  .- CRC mismatch 
 11f08 00000000 00000000 08200000 00000000  ......... ......
 11f18 424f4f54 0a000000 496e666f 3a206166  BOOT....Info: af
 11f28 74657220 73642063 6f707920 696d6167  ter sd copy imag
 11f38 65202c20 64647220 76616c75 65202578  e , ddr value %x
 11f48 202d2025 780d0a00 4552524f 52000000   - %x...ERROR...
 11f58 eee8ffff 96e8ffff 96e8ffff 96e8ffff  ................
 11f68 96e8ffff eae8ffff 96e8ffff 96e8ffff  ................
 11f78 96e8ffff 4ee8ffff 96e8ffff 96e8ffff  ....N...........
 11f88 96e8ffff 96e8ffff 96e8ffff 96e8ffff  ................
 11f98 c0e8ffff 96e8ffff 96e8ffff 96e8ffff  ................
 11fa8 96e8ffff 5ce8ffff                    ....\...        
Contents of section .sdata:
 11fb0 2d2f7c5c                             -/|\            
Contents of section .debug_line:
 0000 61000000 02001d00 00000101 fb0e0d00  a...............
 0010 01010101 00000001 00000100 68656164  ............head
 0020 2e530000 00000000 09020000 01000000  .S..............
 0030 00000309 01030109 14000103 01090c00  ................
 0040 01030109 04000103 01095800 01030109  ..........X.....
 0050 04000103 01090800 01030109 08000109  ................
 0060 04000001 018c0600 000200d5 00000001  ................
 0070 01fb0e0d 00010101 01000000 01000001  ................
 0080 2f6d6e74 2f652f57 6f726b2f 696e7374  /mnt/e/Work/inst
 0090 616c6c2f 72697363 762f746f 6f6c6368  all/riscv/toolch
 00a0 61696e2f 72697363 7636342d 756e6b6e  ain/riscv64-unkn
 00b0 6f776e2d 656c662f 696e636c 7564652f  own-elf/include/
 00c0 6d616368 696e6500 2f6d6e74 2f652f57  machine./mnt/e/W
 00d0 6f726b2f 696e7374 616c6c2f 72697363  ork/install/risc
 00e0 762f746f 6f6c6368 61696e2f 72697363  v/toolchain/risc
 00f0 7636342d 756e6b6e 6f776e2d 656c662f  v64-unknown-elf/
 0100 696e636c 7564652f 73797300 0073642e  include/sys..sd.
 0110 63000000 006b7072 696e7466 2e680000  c....kprintf.h..
 0120 00005f64 65666175 6c745f74 79706573  .._default_types
 0130 2e680001 00005f73 7464696e 742e6800  .h...._stdint.h.
 0140 02000000 00090294 00010000 00000003  ................
 0150 2a010303 09060001 036d0908 00010303  *........m......
 0160 09060001 03020906 0001037b 09040001  ...........{....
 0170 03030904 00010302 09060001 03110904  ................
 0180 0001036a 09040001 03030902 00010302  ...j............
 0190 09060001 037b0904 00010303 09040001  .....{..........
 01a0 03020906 00010313 09040001 03680908  .............h..
 01b0 00010303 09020001 03020906 0001037b  ...............{
 01c0 09080001 03030902 00010302 09060001  ................
 01d0 037b0904 00010303 09060001 03020906  .{..............
 01e0 0001037b 09040001 03050904 0001037b  ...{...........{
 01f0 09040001 0303090a 00010302 09040001  ................
 0200 031c0904 00010304 090e0001 03010902  ................
 0210 00010303 090c0001 090c0000 01010009  ................
 0220 02540101 00000000 0003e401 01030309  .T..............
 0230 04000103 7d090400 01030309 18000103  ....}...........
 0240 06090400 01030109 18000103 7f090400  ................
 0250 01030109 04000103 02091000 01030209  ................
 0260 04000103 03091000 01030409 0a000103  ................
 0270 04092000 01030509 08000103 10090a00  .. .............
 0280 01030309 20000103 11090800 01030309  .... ...........
 0290 06000103 01090800 01030109 08000103  ................
 02a0 01090400 01030109 04000103 02090400  ................
 02b0 01030a09 0e000103 9d7e090c 00010301  .........~......
 02c0 090e0001 03430908 0001033f 09040001  .....C.....?....
 02d0 03410902 0001033f 09040001 03410902  .A.....?.....A..
 02e0 00010303 09060001 03020902 0001033c  ...............<
 02f0 09060001 030c0902 00010379 09080001  ...........y....
 0300 03070904 00010301 09040001 03b27f09  ................
 0310 0e000103 03090600 01030209 06000103  ................
 0320 2b090400 0103fd01 09040001 03a97e09  +.............~.
 0330 06000103 01090c00 0103a97f 09160001  ................
 0340 03d70009 04000103 a97f0904 00010303  ................
 0350 09020001 03020906 0001037b 09040001  ...........{....
 0360 03030906 00010302 09060001 037b0904  .............{..
 0370 00010303 09060001 03020908 000103d5  ................
 0380 00090400 0103a67f 09060001 03da0009  ................
 0390 06000103 a97f0904 00010302 09080001  ................
 03a0 03d60009 04000103 a57f0912 00010303  ................
 03b0 09060001 03020906 0001032b 09040001  ...........+....
 03c0 03fd0109 04000103 06090200 01030109  ................
 03d0 0c000103 08090200 01034009 1e000103  ..........@.....
 03e0 04090e00 01030109 0a000103 01090800  ................
 03f0 01030109 06000103 01090400 01030309  ................
 0400 06000103 01090800 01036109 10000103  ..........a.....
 0410 03090600 01030109 08000103 01090800  ................
 0420 01030109 04000103 01090400 01030209  ................
 0430 04000103 f77e0910 00010397 7f090c00  .....~..........
 0440 0103ed00 09080001 03750902 0001039e  .........u......
 0450 7f090e00 01030309 04000103 02090200  ................
 0460 01032b09 04000103 3c090400 01030109  ..+.....<.......
 0470 10000103 c1010904 000103c6 7e090400  ............~...
 0480 01030109 0c000103 8b7f0912 000103f5  ................
 0490 00090400 01038b7f 09040001 03030902  ................
 04a0 00010302 09080001 03f10009 04000103  ................
 04b0 8a7f090e 00010303 09060001 03020906  ................
 04c0 0001037b 09040001 03030906 00010302  ...{............
 04d0 09060001 037b0904 00010303 09060001  .....{..........
 04e0 03020906 0001037b 09040001 03030906  .......{........
 04f0 00010302 09060001 032b0904 000103ff  .........+......
 0500 01090400 0103d27e 09040001 0301090c  .......~........
 0510 000103fe 7e090e00 01030309 06000103  ....~...........
 0520 02090600 01032b09 04000103 80020904  ......+.........
 0530 000103ed 7e090400 01030309 0c000103  ....~...........
 0540 e07e0910 00010303 09060001 03020906  .~..............
 0550 0001032b 09040001 03910109 06000103  ...+............
 0560 58090400 01037309 02000103 35090200  X.....s.....5...
 0570 01035909 04000103 7f090200 0103e77e  ..Y............~
 0580 09020001 038c0109 0c000103 22090200  ............"...
 0590 01031309 08000103 bf7e0902 000103a9  .........~......
 05a0 01090400 0103d77e 09040001 03030902  .......~........
 05b0 00010302 09060001 03a40109 04000103  ................
 05c0 7e090e00 0103d97e 09020001 03030908  ~......~........
 05d0 00010302 09060001 03840109 04000103  ................
 05e0 fd7e0908 00010383 01090400 01030109  .~..............
 05f0 0a000103 01090800 01030109 0e000103  ................
 0600 22091a00 01037e09 04000103 02090800  ".....~.........
 0610 01030109 0c000103 d17e0908 00010303  .........~......
 0620 090e0001 03020906 000103ad 01090400  ................
 0630 0103ce7e 09060001 03030904 00010302  ...~............
 0640 09060001 03b00109 04000103 7e090400  ............~...
 0650 01030209 04000103 02091800 01030109  ................
 0660 04000103 05090c00 01030409 06000103  ................
 0670 bf7e0908 00010303 090a0001 03020906  .~..............
 0680 0001032b 09040001 03930109 04000103  ...+............
 0690 bd7e090c 00010303 09060001 03020906  .~..............
 06a0 0001032b 09040001 03950109 04000103  ...+............
 06b0 f100090c 00010302 090c0001 03020914  ................
 06c0 00010301 09040001 040203c6 7d090400  ............}...
 06d0 01030409 0a000104 0103ba01 09080001  ................
 06e0 040203c2 7e091600 01030409 08000109  ....~...........
 06f0 0a000001 01fa0200 00020034 01000001  ...........4....
 0700 01fb0e0d 00010101 01000000 01000001  ................
 0710 2f6d6e74 2f652f57 6f726b2f 696e7374  /mnt/e/Work/inst
 0720 616c6c2f 72697363 762f746f 6f6c6368  all/riscv/toolch
 0730 61696e2f 6c69622f 6763632f 72697363  ain/lib/gcc/risc
 0740 7636342d 756e6b6e 6f776e2d 656c662f  v64-unknown-elf/
 0750 372e322e 302f696e 636c7564 65002f6d  7.2.0/include./m
 0760 6e742f65 2f576f72 6b2f696e 7374616c  nt/e/Work/instal
 0770 6c2f7269 7363762f 746f6f6c 63686169  l/riscv/toolchai
 0780 6e2f7269 73637636 342d756e 6b6e6f77  n/riscv64-unknow
 0790 6e2d656c 662f696e 636c7564 652f6d61  n-elf/include/ma
 07a0 6368696e 65002f6d 6e742f65 2f576f72  chine./mnt/e/Wor
 07b0 6b2f696e 7374616c 6c2f7269 7363762f  k/install/riscv/
 07c0 746f6f6c 63686169 6e2f7269 73637636  toolchain/riscv6
 07d0 342d756e 6b6e6f77 6e2d656c 662f696e  4-unknown-elf/in
 07e0 636c7564 652f7379 7300006b 7072696e  clude/sys..kprin
 07f0 74662e63 00000000 6b707269 6e74662e  tf.c....kprintf.
 0800 68000000 00737464 6172672e 68000100  h....stdarg.h...
 0810 005f6465 6661756c 745f7479 7065732e  ._default_types.
 0820 68000200 005f7374 64696e74 2e680003  h...._stdint.h..
 0830 00000000 09021407 01000000 0000030f  ................
 0840 01037b09 00000104 02031109 06000103  ..{.............
 0850 04090800 01040103 6b090800 01040203  ........k.......
 0860 11090800 01030409 0a000103 7c090800  ............|...
 0870 01030409 0a000104 01037409 08000103  ..........t.....
 0880 03090200 01030009 02000103 05090200  ................
 0890 01037b09 02000103 05090800 01037b09  ..{...........{.
 08a0 02000103 08090400 01037f09 02000103  ................
 08b0 7f090200 01032709 02000104 02035809  ......'.......X.
 08c0 04000104 01030609 04000103 14090a00  ................
 08d0 01036a09 02000103 01090800 01030109  ..j.............
 08e0 02000103 7e091600 01030409 06000103  ....~...........
 08f0 7c090200 01032b09 02000103 62090a00  |.....+.....b...
 0900 01037f09 02000103 01090200 01030109  ................
 0910 04000103 07090400 01030109 0a000100  ................
 0920 02040106 03000908 00010402 06036609  ..............f.
 0930 04000103 04090400 01040100 02040403  ................
 0940 13090800 01031009 06000103 7f090200  ................
 0950 01037f09 02000103 03090400 01030109  ................
 0960 04000104 02035709 04000103 04090400  ......W.........
 0970 01037c09 08000103 04090400 01040103  ..|.............
 0980 1b090a00 01035009 08000104 02031109  ......P.........
 0990 06000103 04090400 01040103 6b090800  ............k...
 09a0 01033809 08000103 7f090200 01037f09  ..8.............
 09b0 02000103 66090400 01031709 04000104  ....f...........
 09c0 02035e09 0a000103 04090400 01040103  ..^.............
 09d0 23090800 01037f09 02000103 7f090200  #...............
 09e0 01036f09 04000103 01090400 01090a00  ..o.............
 09f0 000101                               ...             
Contents of section .debug_info:
 0000 2a000000 02000000 00000801 00000000  *...............
 0010 00000100 00000000 94000100 00000000  ................
 0020 00000000 07000000 2f000000 01804a14  ......../.....J.
 0030 00000400 14000000 0801bf00 00000c52  ...............R
 0040 00000007 000000a0 03000000 00000000  ................
 0050 00000065 00000002 01061801 000003b5  ...e............
 0060 00000003 2b3b0000 00020108 16010000  ....+;..........
 0070 02020557 00000003 7e000000 03395400  ...W....~....9T.
 0080 00000202 074c0100 00038901 0000034d  .....L.........M
 0090 66000000 04040569 6e740003 6e000000  f......int..n...
 00a0 034f7800 00000204 077c0100 00020805  .Ox......|......
 00b0 a1000000 03670100 00036991 00000002  .....g....i.....
 00c0 08077701 000003b7 00000004 18300000  ..w..........0..
 00d0 00059800 00000380 00000004 24490000  ............$I..
 00e0 00038b01 0000042c 5b000000 03700000  .......,[....p..
 00f0 0004306d 00000005 be000000 03690100  ..0m.........i..
 0100 00043c86 00000006 79000000 0213ee00  ..<.....y.......
 0110 00000000 00640708 c9000000 08e80000  .....d..........
 0120 0009aa01 00000214 04010000 07080901  ................
 0130 000008fe 00000002 01081f01 00000809  ................
 0140 0100000a 73706900 0115ee00 00000010  ....spi.........
 0150 00640b10 01000034 0100000c 91000000  .d.....4........
 0160 03000824 0100000d 5f010000 01b03401  ...$...._.....4.
 0170 00000903 b01f0100 00000000 0e690000  .............i..
 0180 0001e466 00000054 01010000 000000c0  ...f...T........
 0190 05000000 00000001 9cfc0f00 00064000  ..............@.
 01a0 000001e6 ce000000 00000051 0f2d0100  ...........Q.-..
 01b0 0001e7ce 00000000 00000010 c6010100  ................
 01c0 00000000 20000000 00000000 f4010000  .... ...........
 01d0 11690001 f9660000 006a0000 0012d601  .i...f...j......
 01e0 01000000 00003714 0000d301 00001301  ......7.........
 01f0 5a090330 1d010000 00000013 015b0131  Z..0.........[.1
 0200 0014e601 01000000 00003714 00001301  ..........7.....
 0210 5a090330 1d010000 00000013 015b0130  Z..0.........[.0
 0220 000010f8 01010000 00000020 00000000  ........... ....
 0230 0000005c 02000015 69000112 01660000  ...\....i....f..
 0240 00b70000 00120802 01000000 00003714  ..............7.
 0250 00003b02 00001301 5a090358 1d010000  ..;.....Z..X....
 0260 00000013 015b0131 00141802 01000000  .....[.1........
 0270 00003714 00001301 5a090358 1d010000  ..7.....Z..X....
 0280 00000013 015b0130 00001610 1100005c  .....[.0.......\
 0290 02010000 00000060 00000001 4701f602  .......`....G...
 02a0 0000171c 11000018 60000000 19271100  ........`....'..
 02b0 00190100 00193011 00007801 00001adf  ......0...x.....
 02c0 13000072 02010000 00000090 00000001  ...r............
 02d0 5ed40200 001beb13 00007202 01000000  ^.........r.....
 02e0 00009000 00000127 1cfb1300 00b00100  .......'........
 02f0 00189000 00001904 140000d5 01000000  ................
 0300 0000146a 02010000 00000037 14000013  ...j.......7....
 0310 015a0903 681e0100 00000000 13015b01  .Z..h.........[.
 0320 33000000 16f51000 008e0201 00000000  3...............
 0330 00d00000 00014801 cc030000 18d00000  ......H.........
 0340 00190511 0000f801 00001d3c 110000ac  ...........<....
 0350 02010000 00000014 00000000 00000001  ................
 0360 6a8c0300 001edf13 0000ac02 01000000  j...............
 0370 00001000 00000000 00000149 1eeb1300  ...........I....
 0380 00ac0201 00000000 00100000 00000000  ................
 0390 0001271c fb130000 25020000 1fac0201  ..'.....%.......
 03a0 00000000 00100000 00000000 00190414  ................
 03b0 00004a02 00000000 0000129e 02010000  ..J.............
 03c0 00000042 140000ab 03000013 015a0903  ...B.........Z..
 03d0 901e0100 00000000 0014ac02 01000000  ................
 03e0 00004411 00001301 5a020840 13015b01  ..D.....Z..@..[.
 03f0 3013015c 02099500 000020da 100000c6  0..\...... .....
 0400 02010000 0000009a 00000000 00000001  ................
 0410 4901ec05 00001fc6 02010000 0000009a  I...............
 0420 00000000 00000019 ea100000 6d020000  ............m...
 0430 1adf1300 00e80201 00000000 00000100  ................
 0440 00017346 0400001b eb130000 e8020100  ..sF............
 0450 00000000 00010000 01271cfb 130000c8  .........'......
 0460 02000018 00010000 19041400 00ed0200  ................
 0470 00000000 1ddf1300 00fc0201 00000000  ................
 0480 00100000 00000000 0001749e 0400001e  ..........t.....
 0490 eb130000 fc020100 00000000 10000000  ................
 04a0 00000000 01271cfb 13000010 0300001f  .....'..........
 04b0 fc020100 00000000 10000000 00000000  ................
 04c0 19041400 00350300 00000000 1ddf1300  .....5..........
 04d0 000c0301 00000000 00120000 00000000  ................
 04e0 000175f6 0400001e eb130000 0c030100  ..u.............
 04f0 00000000 12000000 00000000 01271cfb  .............'..
 0500 13000058 0300001f 0c030100 00000000  ...X............
 0510 12000000 00000000 19041400 007d0300  .............}..
 0520 00000000 1adf1300 00240301 00000000  .........$......
 0530 00300100 0001763a 0500001b eb130000  .0....v:........
 0540 24030100 00000000 30010000 01271cfb  $.......0....'..
 0550 130000a0 03000018 30010000 19041400  ........0.......
 0560 00c50300 00000000 1d3c1100 004c0301  .........<...L..
 0570 00000000 00140000 00000000 000177aa  ..............w.
 0580 0500001e df130000 4c030100 00000000  ........L.......
 0590 10000000 00000000 01491eeb 1300004c  .........I.....L
 05a0 03010000 00000010 00000000 00000001  ................
 05b0 271cfb13 0000e803 00001f4c 03010000  '..........L....
 05c0 00000010 00000000 00000019 04140000  ................
 05d0 0d040000 00000000 12d20201 00000000  ................
 05e0 00421400 00c90500 0013015a 0903981e  .B.........Z....
 05f0 01000000 00000014 e2020100 00000000  ................
 0600 44110000 13015a02 08481301 5b030aaa  D.....Z..H..[...
 0610 0113015c 02098700 000020b8 10000008  ...\...... .....
 0620 04010000 00000046 00000000 00000001  .......F........
 0630 4a01f306 00001f08 04010000 00000046  J..............F
 0640 00000000 00000019 c8100000 30040000  ............0...
 0650 1ad21000 00140401 00000000 00600100  .............`..
 0660 000186b1 0600001a 3c110000 14040100  ........<.......
 0670 00000000 90010000 017e9106 00001bdf  .........~......
 0680 13000014 04010000 000000c0 01000001  ................
 0690 491beb13 00001404 01000000 0000c001  I...............
 06a0 00000127 1cfb1300 00530400 0018c001  ...'.....S......
 06b0 00001904 14000078 04000000 00000014  .......x........
 06c0 2c040100 00000000 44110000 13015a02  ,.......D.....Z.
 06d0 08771301 5b013013 015c0208 65000012  .w..[.0..\..e...
 06e0 14040100 00000000 42140000 d0060000  ........B.......
 06f0 13015a09 03a01e01 00000000 0000144a  ..Z............J
 0700 04010000 00000044 11000013 015a0208  .......D.....Z..
 0710 6913015b 03404a24 13015c02 08770000  i..[.@J$..\..w..
 0720 00209d10 00005204 01000000 00008600  . ....R.........
 0730 00000000 0000014b 01250900 001f5204  .......K.%....R.
 0740 01000000 00008600 00000000 000019ad  ................
 0750 1000009b 0400001a df130000 70040100  ............p...
 0760 00000000 f0010000 01916d07 00001beb  ..........m.....
 0770 13000070 04010000 000000f0 01000001  ...p............
 0780 271cfb13 0000db04 000018f0 01000019  '...............
 0790 04140000 00050000 0000001d df130000  ................
 07a0 94040100 00000000 10000000 00000000  ................
 07b0 0192c507 00001eeb 13000094 04010000  ................
 07c0 00000010 00000000 00000001 271cfb13  ............'...
 07d0 00002305 00001f94 04010000 00000010  ..#.............
 07e0 00000000 00000019 04140000 48050000  ............H...
 07f0 0000001d df130000 a4040100 00000000  ................
 0800 10000000 00000000 01931d08 00001eeb  ................
 0810 130000a4 04010000 00000010 00000000  ................
 0820 00000001 271cfb13 00006b05 00001fa4  ....'.....k.....
 0830 04010000 00000010 00000000 00000019  ................
 0840 04140000 90050000 0000001d df130000  ................
 0850 b4040100 00000000 10000000 00000000  ................
 0860 01947508 00001eeb 130000b4 04010000  ..u.............
 0870 00000010 00000000 00000001 271cfb13  ............'...
 0880 0000b305 00001fb4 04010000 00000010  ................
 0890 00000000 00000019 04140000 d8050000  ................
 08a0 0000001d 3c110000 c4040100 00000000  ....<...........
 08b0 14000000 00000000 0195e508 00001edf  ................
 08c0 130000c4 04010000 00000010 00000000  ................
 08d0 00000001 491eeb13 0000c404 01000000  ....I...........
 08e0 00001000 00000000 00000127 1cfb1300  ...........'....
 08f0 00fb0500 001fc404 01000000 00001000  ................
 0900 00000000 00001904 14000020 06000000  ........... ....
 0910 00000012 5e040100 00000000 42140000  ....^.......B...
 0920 04090000 13015a09 03a81e01 00000000  ......Z.........
 0930 0000146c 04010000 00000044 11000013  ...l.......D....
 0940 015a0208 7a13015b 01301301 5c0209fd  .Z..z..[.0..\...
 0950 00000020 82100000 dc040100 00000000  ... ............
 0960 2e000000 00000000 014c010c 0a00001f  .........L......
 0970 dc040100 00000000 2e000000 00000000  ................
 0980 19921000 00430600 001d3c11 0000f604  .....C....<.....
 0990 01000000 00001400 00000000 0000019e  ................
 09a0 cb090000 1edf1300 00f60401 00000000  ................
 09b0 00100000 00000000 0001491e eb130000  ..........I.....
 09c0 f6040100 00000000 10000000 00000000  ................
 09d0 01271cfb 13000070 0600001f f6040100  .'.....p........
 09e0 00000000 10000000 00000000 19041400  ................
 09f0 00950600 00000000 0012e804 01000000  ................
 0a00 00004214 0000ea09 00001301 5a0903b0  ..B.........Z...
 0a10 1e010000 00000000 14f60401 00000000  ................
 0a20 00441100 0013015a 02085013 015b030a  .D.....Z..P..[..
 0a30 00021301 5c014500 000016fc 0f00000e  ....\.E.........
 0a40 05010000 00000020 02000001 4d01900e  ....... ....M...
 0a50 00001820 02000019 0c100000 b8060000  ... ............
 0a60 19151000 00400700 00211e10 0000001d  .....@...!......
 0a70 3c110000 2a050100 00000000 16000000  <...*...........
 0a80 00000000 01bcb10a 00001edf 1300002a  ...............*
 0a90 05010000 00000010 00000000 00000001  ................
 0aa0 491eeb13 00002a05 01000000 00001000  I.....*.........
 0ab0 00000000 00000127 1cfb1300 00a20700  .......'........
 0ac0 001f2a05 01000000 00001000 00000000  ..*.............
 0ad0 00001904 140000c7 07000000 00000022  ..............."
 0ae0 28100000 50020000 2f0d0000 19291000  (...P.../....)..
 0af0 00ea0700 00193410 00002108 0000193f  ......4...!....?
 0b00 10000082 08000022 48100000 a0020000  ......."H.......
 0b10 6c0b0000 23491000 001a5b10 00004605  l...#I....[...F.
 0b20 01000000 0000e002 000001c8 0d0b0000  ................
 0b30 17761000 00176b10 0000001a df130000  .v....k.........
 0b40 8c050100 00000000 30030000 01c6510b  ........0.....Q.
 0b50 00001beb 1300008c 05010000 00000030  ...............0
 0b60 03000001 271cfb13 00002909 00001830  ....'.....)....0
 0b70 03000019 04140000 4e090000 00000014  ........N.......
 0b80 fc050100 00000000 37140000 13015a02  ........7.....Z.
 0b90 83001301 5c028900 00001adf 13000050  ....\..........P
 0ba0 05010000 00000060 03000001 c4b00b00  .......`........
 0bb0 001beb13 00005005 01000000 00006003  ......P.......`.
 0bc0 00000127 1cfb1300 00710900 00186003  ...'.....q....`.
 0bd0 00001904 14000096 09000000 00001ddf  ................
 0be0 13000004 06010000 00000018 00000000  ................
 0bf0 00000001 cd080c00 001eeb13 00000406  ................
 0c00 01000000 00001800 00000000 00000127  ...............'
 0c10 1cfb1300 00b90900 001f0406 01000000  ................
 0c20 00001800 00000000 00001904 140000de  ................
 0c30 09000000 00001ddf 13000022 06010000  ..........."....
 0c40 0000000e 00000000 00000001 ce600c00  .............`..
 0c50 001eeb13 00002206 01000000 00000e00  ......".........
 0c60 00000000 00000127 1cfb1300 00010a00  .......'........
 0c70 001f2206 01000000 00000e00 00000000  ..".............
 0c80 00001904 14000026 0a000000 00001d0e  .......&........
 0c90 140000da 06010000 00000012 00000000  ................
 0ca0 00000001 d9a10c00 00171a14 00001fda  ................
 0cb0 06010000 00000012 00000000 00000023  ...............#
 0cc0 23140000 192d1400 00490a00 0000001d  #....-...I......
 0cd0 0e140000 02070100 00000000 12000000  ................
 0ce0 00000000 01dae20c 0000241a 14000001  ..........$.....
 0cf0 5e1f0207 01000000 00001200 00000000  ^...............
 0d00 00002323 14000025 2d140000 015d0000  ..##...%-....]..
 0d10 12500601 00000000 00371400 00130d00  .P.......7......
 0d20 0013015a 0903d81e 01000000 00001301  ...Z............
 0d30 5c02797c 13015d02 89001301 5e028400  \.y|..].....^...
 0d40 00146006 01000000 00004214 00001301  ..`.......B.....
 0d50 5a0903f8 1e010000 00000000 001d3c11  Z.............<.
 0d60 00006e06 01000000 00001800 00000000  ..n.............
 0d70 000001dd 9f0d0000 1edf1300 006e0601  .............n..
 0d80 00000000 00140000 00000000 0001491e  ..............I.
 0d90 eb130000 6e060100 00000000 14000000  ....n...........
 0da0 00000000 01271cfb 1300006c 0a00001f  .....'.....l....
 0db0 6e060100 00000000 14000000 00000000  n...............
 0dc0 19041400 00910a00 00000000 001d3c11  ..............<.
 0dd0 00009206 01000000 00001400 00000000  ................
 0de0 000001df 0f0e0000 1edf1300 00920601  ................
 0df0 00000000 00100000 00000000 0001491e  ..............I.
 0e00 eb130000 92060100 00000000 10000000  ................
 0e10 00000000 01271cfb 130000b4 0a00001f  .....'..........
 0e20 92060100 00000000 10000000 00000000  ................
 0e30 19041400 00d90a00 00000000 00121a05  ................
 0e40 01000000 00004214 00002e0e 00001301  ......B.........
 0e50 5a0903b8 1e010000 00000000 12280501  Z............(..
 0e60 00000000 00441100 00510e00 0013015a  .....D...Q.....Z
 0e70 02085213 015b0130 13015c02 09e10012  ..R..[.0..\.....
 0e80 92060100 00000000 44110000 730e0000  ........D...s...
 0e90 13015a02 084c1301 5b013013 015c0131  ..Z..L..[.0..\.1
 0ea0 0014b206 01000000 00004214 00001301  ..........B.....
 0eb0 5a090310 1f010000 00000000 00001298  Z...............
 0ec0 01010000 00000037 140000c9 0e000013  .......7........
 0ed0 015a0903 881c0100 00000000 13015b09  .Z............[.
 0ee0 03781c01 00000000 0013015c 0903681c  .x.........\..h.
 0ef0 01000000 00000012 a8010100 00000000  ................
 0f00 37140000 e80e0000 13015a09 03b81c01  7.........Z.....
 0f10 00000000 000012bc 01010000 00000037  ...............7
 0f20 14000007 0f000013 015a0903 e81c0100  .........Z......
 0f30 00000000 00125002 01000000 00003714  ......P.......7.
 0f40 0000260f 00001301 5a090328 1e010000  ..&.....Z..(....
 0f50 00000000 125c0201 00000000 00421400  .....\.......B..
 0f60 00450f00 0013015a 0903601e 01000000  .E.....Z..`.....
 0f70 00000012 6e030100 00000000 42140000  ....n.......B...
 0f80 640f0000 13015a09 03501f01 00000000  d.....Z..P......
 0f90 0000129c 03010000 00000037 14000083  ...........7....
 0fa0 0f000013 015a0903 c01d0100 00000000  .....Z..........
 0fb0 0012d403 01000000 00003714 0000a20f  ..........7.....
 0fc0 00001301 5a0903f8 1d010000 00000000  ....Z...........
 0fd0 12060401 00000000 00371400 00c10f00  .........7......
 0fe0 0013015a 0903881d 01000000 00000012  ...Z............
 0ff0 be060100 00000000 42140000 e00f0000  ........B.......
 1000 13015a09 03181f01 00000000 000014d2  ..Z.............
 1010 06010000 00000037 14000013 015a0903  .......7.....Z..
 1020 201f0100 00000000 00002699 01000001   .........&.....
 1030 b2660000 00015510 00002770 0001b455  .f....U...'p...U
 1040 10000027 690001b5 7f000000 27726300  ...'i.......'rc.
 1050 01b66600 00002827 63726300 01c0a800  ..f...('crc.....
 1060 0000094a 00000001 c0a80000 00276e00  ...J.........'n.
 1070 01c17f00 00002827 780001c6 98000000  ......('x.......
 1080 00000007 08a30000 00269e01 000001a2  .........&......
 1090 a8000000 01821000 00296372 630001a2  .........)crc...
 10a0 a8000000 2a720100 0001a298 00000000  ....*r..........
 10b0 26240100 00019966 00000001 9d100000  &$.....f........
 10c0 27726300 019b6600 00000026 43010000  'rc...f....&C...
 10d0 018c6600 000001b8 10000027 72630001  ..f........'rc..
 10e0 8e660000 000026cd 01000001 81660000  .f....&......f..
 10f0 0001d210 00002772 00018398 00000000  ......'r........
 1100 2b3a0100 00017b01 26e20100 00016e66  +:....{.&.....nf
 1110 00000001 f5100000 27726300 01706600  ........'rc..pf.
 1120 00000026 c5010000 01656600 00000110  ...&.....ef.....
 1130 11000027 72630001 67660000 00002cd7  ...'rc..gf....,.
 1140 01000001 50013c11 00002a31 01000001  ....P.<...*1....
 1150 50ce0000 00276900 01527f00 00000999  P....'i..R......
 1160 00000001 53ce0000 00002baa 00000001  ....S.....+.....
 1170 46032d89 00000001 2a980000 00940001  F.-.....*.......
 1180 00000000 00c00000 00000000 00019cdf  ................
 1190 1300002e 636d6400 012a9800 0000fc0a  ....cmd..*......
 11a0 00002e61 72670001 2abe0000 00350b00  ...arg..*....5..
 11b0 002e6372 6300012a 98000000 6e0b0000  ..crc..*....n...
 11c0 116e0001 2c910000 00a70b00 00277200  .n..,........'r.
 11d0 012d9800 00002f3b 00000001 42480101  .-..../;....BH..
 11e0 00000000 001ddf13 0000a200 01000000  ................
 11f0 00001000 00000000 0000012f 0f120000  .........../....
 1200 1eeb1300 00a20001 00000000 00100000  ................
 1210 00000000 0001271c fb130000 f20b0000  ......'.........
 1220 1fa20001 00000000 00100000 00000000  ................
 1230 00190414 0000170c 00000000 001deb13  ................
 1240 0000b200 01000000 00000e00 00000000  ................
 1250 00000130 4f120000 1cfb1300 003a0c00  ...0O........:..
 1260 001fb200 01000000 00000e00 00000000  ................
 1270 00001904 14000073 0c000000 001deb13  .......s........
 1280 0000c400 01000000 00000c00 00000000  ................
 1290 00000131 8f120000 1cfb1300 00960c00  ...1............
 12a0 001fc400 01000000 00000c00 00000000  ................
 12b0 00001904 140000ce 0c000000 001deb13  ................
 12c0 0000d000 01000000 00000e00 00000000  ................
 12d0 00000132 cf120000 1cfb1300 00f10c00  ...2............
 12e0 001fd000 01000000 00000e00 00000000  ................
 12f0 00001904 14000018 0d000000 001deb13  ................
 1300 0000e600 01000000 00001000 00000000  ................
 1310 00000133 0f130000 1cfb1300 003b0d00  ...3.........;..
 1320 001fe600 01000000 00001000 00000000  ................
 1330 00001904 14000062 0d000000 001deb13  .......b........
 1340 0000f600 01000000 00000c00 00000000  ................
 1350 00000134 4f130000 1cfb1300 00850d00  ...4O...........
 1360 001ff600 01000000 00000c00 00000000  ................
 1370 00001904 140000a8 0d000000 001aeb13  ................
 1380 00000201 01000000 00000000 00000135  ...............5
 1390 7f130000 1cfb1300 00cb0d00 00180000  ................
 13a0 00001904 14000004 0e000000 001adf13  ................
 13b0 00001201 01000000 00003000 0000013a  ..........0....:
 13c0 c3130000 1beb1300 00120101 00000000  ................
 13d0 00300000 0001271c fb130000 270e0000  .0....'.....'...
 13e0 18300000 00190414 00004c0e 00000000  .0........L.....
 13f0 00144801 01000000 00004214 00001301  ..H.......B.....
 1400 5a090358 1c010000 00000000 0030bc01  Z..X.........0..
 1410 00000124 98000000 03269000 00000117  ...$.....&......
 1420 98000000 030e1400 00296400 01179800  .........)d.....
 1430 00002772 000119b3 00000000 2c930100  ..'r........,...
 1440 00021603 37140000 29630002 16090100  ....7...)c......
 1450 00277478 000218e8 00000027 7200021a  .'tx.......'r...
 1460 b3000000 00316100 00006100 00000228  .....1a...a....(
 1470 31300200 00300200 00022700 3b040000  10...0....'.;...
 1480 04009502 00000801 bf000000 0c040200  ................
 1490 00070000 00140701 00000000 005e0100  .............^..
 14a0 00000000 00f50600 00021602 00000328  ...............(
 14b0 38000000 0308f201 0000021d 02000003  8...............
 14c0 632d0000 00040106 18010000 04010816  c-..............
 14d0 01000004 02055700 00000402 074c0100  ......W......L..
 14e0 00028901 0000044d 70000000 05040569  .......Mp......i
 14f0 6e740002 6e000000 044f8200 00000404  nt..n....O......
 1500 077c0100 00040805 a1000000 04080777  .|.............w
 1510 01000002 8b010000 052c6500 00000270  .........,e....p
 1520 00000005 30770000 0006a200 00000779  ....0w.........y
 1530 00000002 13c70000 00000000 640808ad  ............d...
 1540 00000009 c1000000 0aaa0100 000214dd  ................
 1550 00000008 08e20000 0009d700 00000401  ................
 1560 081f0100 0009e200 00000b61 00000001  ...........a....
 1570 16580701 00000000 001a0100 00000000  .X..............
 1580 00019ccb 0200000c 666d7400 0116cb02  ........fmt.....
 1590 00006f0e 00000d0e 766c0001 183e0000  ..o.....vl...>..
 15a0 000391b8 7f0f2502 00000119 d1020000  ......%.........
 15b0 cd0e0000 0f0e0200 000119d1 02000050  ...............P
 15c0 0f00000f ea010000 0119d102 0000c00f  ................
 15d0 00001063 00011ae2 00000043 10000011  ...c.......C....
 15e0 00040000 d7010000 106e0001 2a900000  .........n..*...
 15f0 008c1000 00106900 012b8900 0000c210  ......i..+......
 1600 00001240 04000010 64000134 89000000  ...@....d..4....
 1610 0d110000 13190400 00dc0701 00000000  ................
 1620 000c0000 00000000 00013614 21040000  ..........6.!...
 1630 15dc0701 00000000 000c0000 00000000  ................
 1640 00162a04 00001734 04000064 11000000  ..*....4...d....
 1650 00000018 19040000 76070100 00000000  ........v.......
 1660 d0030000 01470802 00001421 04000012  .....G.....!....
 1670 d0030000 162a0400 00173404 00008711  .....*....4.....
 1680 00000000 19fa0300 00200801 00000000  ......... ......
 1690 001a0000 00000000 00013b85 0200001a  ..........;.....
 16a0 06040000 aa110000 15200801 00000000  ......... ......
 16b0 001a0000 00000000 00170f04 0000cd11  ................
 16c0 00001319 04000026 08010000 0000000c  .......&........
 16d0 00000000 00000001 0c142104 00001526  ..........!....&
 16e0 08010000 0000000c 00000000 00000016  ................
 16f0 2a040000 17340400 00f01100 00000000  *....4..........
 1700 00131904 00005008 01000000 00000c00  ......P.........
 1710 00000000 0000013e 1a210400 00131200  .......>.!......
 1720 00155008 01000000 00000c00 00000000  ..P.............
 1730 0000172a 04000036 12000017 34040000  ...*...6....4...
 1740 5c120000 00000008 08e90000 00040102  \...............
 1750 36020000 0b300200 00010f14 07010000  6....0..........
 1760 00000044 00000000 00000001 9cfa0300  ...D............
 1770 000c7300 010fcb02 00007f12 000019fa  ..s.............
 1780 03000014 07010000 0000001e 00000000  ................
 1790 00000001 117d0300 001b0604 0000015a  .....}.........Z
 17a0 15140701 00000000 001e0000 00000000  ................
 17b0 00170f04 0000b812 00001319 0400001a  ................
 17c0 07010000 00000010 00000000 00000001  ................
 17d0 0c142104 0000151a 07010000 00000010  ..!.............
 17e0 00000000 00000016 2a040000 17340400  ........*....4..
 17f0 00db1200 00000000 00191904 00003207  ..............2.
 1800 01000000 00001200 00000000 00000112  ................
 1810 be030000 14210400 00153207 01000000  .....!....2.....
 1820 00001200 00000000 0000162a 04000017  ...........*....
 1830 34040000 fe120000 00001319 04000044  4..............D
 1840 07010000 00000012 00000000 00000001  ................
 1850 13142104 00001544 07010000 00000012  ..!....D........
 1860 00000000 00000016 2a040000 1c340400  ........*....4..
 1870 00015d00 00001d2f 02000001 08031904  ..]..../........
 1880 00001e73 000108cb 0200001f 6300010a  ...s........c...
 1890 e2000000 00209301 00000216 031e6300  ..... ........c.
 18a0 0216e200 00001f74 78000218 c1000000  .......tx.......
 18b0 1f720002 1a970000 000000             .r.........     
Contents of section .debug_abbrev:
 0000 01110010 06110112 01030e1b 0e250e13  .............%..
 0010 05000000 01110125 0e130b03 0e1b0e55  .......%.......U
 0020 17110110 17000002 24000b0b 3e0b030e  ........$...>...
 0030 00000316 00030e3a 0b3b0b49 13000004  .......:.;.I....
 0040 24000b0b 3e0b0308 00000535 00491300  $...>......5.I..
 0050 00063400 030e3a0b 3b0b4913 1c060000  ..4...:.;.I.....
 0060 070f000b 0b491300 00082600 49130000  .....I....&.I...
 0070 09340003 0e3a0b3b 0b491300 000a3400  .4...:.;.I....4.
 0080 03083a0b 3b0b4913 1c060000 0b010149  ..:.;.I........I
 0090 13011300 000c2100 49132f0b 00000d34  ......!.I./....4
 00a0 00030e3a 0b3b0b49 13021800 000e2e01  ...:.;.I........
 00b0 3f19030e 3a0b3b0b 27194913 11011207  ?...:.;.'.I.....
 00c0 40189742 19011300 000f3400 030e3a0b  @..B......4...:.
 00d0 3b0b4913 02170000 100b0111 01120701  ;.I.............
 00e0 13000011 34000308 3a0b3b0b 49130217  ....4...:.;.I...
 00f0 00001289 82010111 01311301 13000013  .........1......
 0100 8a820100 02189142 18000014 89820101  .......B........
 0110 11013113 00001534 0003083a 0b3b0549  ..1....4...:.;.I
 0120 13021700 00161d01 31135201 5517580b  ........1.R.U.X.
 0130 59050113 00001705 00311300 00180b01  Y........1......
 0140 55170000 19340031 13021700 001a1d01  U....4.1........
 0150 31135201 5517580b 590b0113 00001b1d  1.R.U.X.Y.......
 0160 01311352 01551758 0b590b00 001c0500  .1.R.U.X.Y......
 0170 31130217 00001d1d 01311311 01120758  1........1.....X
 0180 0b590b01 1300001e 1d013113 11011207  .Y........1.....
 0190 580b590b 00001f0b 01110112 07000020  X.Y............ 
 01a0 1d013113 11011207 580b5905 01130000  ..1.....X.Y.....
 01b0 21340031 131c0b00 00220b01 31135517  !4.1....."..1.U.
 01c0 01130000 23340031 13000024 05003113  ....#4.1...$..1.
 01d0 02180000 25340031 13021800 00262e01  ....%4.1.....&..
 01e0 030e3a0b 3b0b2719 4913200b 01130000  ..:.;.'.I. .....
 01f0 27340003 083a0b3b 0b491300 00280b01  '4...:.;.I...(..
 0200 00002905 0003083a 0b3b0b49 1300002a  ..)....:.;.I...*
 0210 0500030e 3a0b3b0b 49130000 2b2e0003  ....:.;.I...+...
 0220 0e3a0b3b 0b271920 0b00002c 2e01030e  .:.;.'. ...,....
 0230 3a0b3b0b 2719200b 01130000 2d2e0103  :.;.'. .....-...
 0240 0e3a0b3b 0b271949 13110112 07401897  .:.;.'.I.....@..
 0250 42190113 00002e05 0003083a 0b3b0b49  B..........:.;.I
 0260 13021700 002f0a00 030e3a0b 3b0b1101  ...../....:.;...
 0270 0000302e 00030e3a 0b3b0b27 19491320  ..0....:.;.'.I. 
 0280 0b000031 2e003f19 3c196e0e 030e3a0b  ...1..?.<.n...:.
 0290 3b0b0000 00011101 250e130b 030e1b0e  ;.......%.......
 02a0 11011207 10170000 02160003 0e3a0b3b  .............:.;
 02b0 0b491300 00030f00 0b0b030e 00000424  .I.............$
 02c0 000b0b3e 0b030e00 00052400 0b0b3e0b  ...>......$...>.
 02d0 03080000 06350049 13000007 3400030e  .....5.I....4...
 02e0 3a0b3b0b 49131c06 0000080f 000b0b49  :.;.I..........I
 02f0 13000009 26004913 00000a34 00030e3a  ....&.I....4...:
 0300 0b3b0b49 1300000b 2e013f19 030e3a0b  .;.I......?...:.
 0310 3b0b2719 11011207 40189742 19011300  ;.'.....@..B....
 0320 000c0500 03083a0b 3b0b4913 02170000  ......:.;.I.....
 0330 0d180000 000e3400 03083a0b 3b0b4913  ......4...:.;.I.
 0340 02180000 0f340003 0e3a0b3b 0b491302  .....4...:.;.I..
 0350 17000010 34000308 3a0b3b0b 49130217  ....4...:.;.I...
 0360 0000110b 01551701 13000012 0b015517  .....U........U.
 0370 0000131d 01311311 01120758 0b590b00  .....1.....X.Y..
 0380 00140500 31130000 150b0111 01120700  ....1...........
 0390 00163400 31130000 17340031 13021700  ..4.1....4.1....
 03a0 00181d01 31135201 5517580b 590b0113  ....1.R.U.X.Y...
 03b0 0000191d 01311311 01120758 0b590b01  .....1.....X.Y..
 03c0 1300001a 05003113 02170000 1b050031  ......1........1
 03d0 13021800 001c3400 31130218 00001d2e  ......4.1.......
 03e0 01030e3a 0b3b0b27 19200b01 1300001e  ...:.;.'. ......
 03f0 05000308 3a0b3b0b 49130000 1f340003  ....:.;.I....4..
 0400 083a0b3b 0b491300 00202e01 030e3a0b  .:.;.I... ....:.
 0410 3b0b2719 200b0000 00                 ;.'. ....       
Contents of section .debug_aranges:
 0000 2c000000 02000000 00000800 00000000  ,...............
 0010 00000100 00000000 94000000 00000000  ................
 0020 00000000 00000000 00000000 00000000  ................
 0030 3c000000 02002e00 00000800 00000000  <...............
 0040 94000100 00000000 c0000000 00000000  ................
 0050 54010100 00000000 c0050000 00000000  T...............
 0060 00000000 00000000 00000000 00000000  ................
 0070 2c000000 02007c14 00000800 00000000  ,.....|.........
 0080 14070100 00000000 5e010000 00000000  ........^.......
 0090 00000000 00000000 00000000 00000000  ................
Contents of section .debug_str:
 0000 68656164 2e53002f 776f726b 2f73766e  head.S./work/svn
 0010 2f706f73 7473696d 5f726973 63762f74  /postsim_riscv/t
 0020 72756e6b 2f73772f 7364626f 6f740047  runk/sw/sdboot.G
 0030 4e552041 5320322e 32390064 6f6e6500  NU AS 2.29.done.
 0040 62617365 5f616464 72006372 635f6578  base_addr.crc_ex
 0050 70007364 2e630073 686f7274 20696e74  p.sd.c.short int
 0060 006b7072 696e7466 006d6169 6e005f5f  .kprintf.main.__
 0070 75696e74 33325f74 00756172 74005f5f  uint32_t.uart.__
 0080 75696e74 31365f74 0073645f 636d6400  uint16_t.sd_cmd.
 0090 7370695f 78666572 0073636c 6b646976  spi_xfer.sclkdiv
 00a0 006c6f6e 6720696e 74007364 5f636d64  .long int.sd_cmd
 00b0 5f656e64 005f5f75 696e7438 5f740047  _end.__uint8_t.G
 00c0 4e552043 31312037 2e322e30 202d6d61  NU C11 7.2.0 -ma
 00d0 7263683d 72763634 696d6163 202d6d63  rch=rv64imac -mc
 00e0 6d6f6465 6c3d6d65 64616e79 202d6d61  model=medany -ma
 00f0 62693d6c 70363420 2d67202d 4f32202d  bi=lp64 -g -O2 -
 0100 7374643d 676e7531 31202d66 6e6f2d63  std=gnu11 -fno-c
 0110 6f6d6d6f 6e00756e 7369676e 65642063  ommon.unsigned c
 0120 68617200 73645f63 6d643136 00757365  har.sd_cmd16.use
 0130 5f636c6b 5f667265 71007364 5f636d64  _clk_freq.sd_cmd
 0140 35350073 645f636d 64353800 73686f72  55.sd_cmd58.shor
 0150 7420756e 7369676e 65642069 6e740073  t unsigned int.s
 0160 70696e6e 6572005f 5f75696e 7436345f  pinner.__uint64_
 0170 74006461 7461006c 6f6e6720 756e7369  t.data.long unsi
 0180 676e6564 20696e74 005f5f69 6e743332  gned int.__int32
 0190 5f74006b 70757463 00636f70 79006372  _t.kputc.copy.cr
 01a0 6331365f 726f756e 64005348 5554444f  c16_round.SHUTDO
 01b0 574e5f46 4c41475f 53545200 73645f64  WN_FLAG_STR.sd_d
 01c0 756d6d79 0073645f 636d6430 0073645f  ummy.sd_cmd0.sd_
 01d0 61636d64 34310073 645f706f 7765726f  acmd41.sd_powero
 01e0 6e007364 5f636d64 38006973 5f636861  n.sd_cmd8.is_cha
 01f0 72005f5f 6275696c 74696e5f 76615f6c  r.__builtin_va_l
 0200 69737400 6b707269 6e74662e 63006973  ist.kprintf.c.is
 0210 5f6c6f6e 67005f5f 676e7563 5f76615f  _long.__gnuc_va_
 0220 6c697374 0069735f 666f726d 6174005f  list.is_format._
 0230 6b707574 73005f42 6f6f6c00           kputs._Bool.    
Contents of section .debug_loc:
 0000 ee010100 00000000 50020100 00000000  ........P.......
 0010 04000a40 9c9f8e03 01000000 0000d403  ...@............
 0020 01000000 00000400 0a409c9f d4030100  .........@......
 0030 00000000 d6030100 00000000 06000c40  ...............@
 0040 0d03009f d6030100 00000000 08040100  ................
 0050 00000000 04000a40 9c9f0000 00000000  .......@........
 0060 00000000 00000000 0000c601 01000000  ................
 0070 0000d601 01000000 00000200 319fd601  ............1...
 0080 01000000 0000e601 01000000 00000200  ................
 0090 309fe601 01000000 00001407 01000000  0...............
 00a0 00000300 09ff9f00 00000000 00000000  ................
 00b0 00000000 000000f8 01010000 00000008  ................
 00c0 02010000 00000002 00319f08 02010000  .........1......
 00d0 00000018 02010000 00000002 00309f18  .............0..
 00e0 02010000 00000050 02010000 00000003  .......P........
 00f0 0009ff9f 8e030100 00000000 d6030100  ................
 0100 00000000 030009ff 9f000000 00000000  ................
 0110 00000000 00000000 00780201 00000000  .........x......
 0120 00820201 00000000 0002003a 9f820201  ...........:....
 0130 00000000 008a0201 00000000 0001005e  ...............^
 0140 8a020100 00000000 8c020100 00000000  ................
 0150 03007e7f 9f8c0201 00000000 009a0201  ..~.............
 0160 00000000 0001005e 00000000 00000000  .......^........
 0170 00000000 00000000 5c020100 00000000  ........\.......
 0180 8e030100 00000000 0200339f 08040100  ..........3.....
 0190 00000000 14070100 00000000 0200339f  ..............3.
 01a0 00000000 00000000 00000000 00000000  ................
 01b0 82020100 00000000 8a020100 00000000  ................
 01c0 030009ff 9f000000 00000000 00000000  ................
 01d0 00000000 00860201 00000000 008a0201  ................
 01e0 00000000 0001005f 00000000 00000000  ......._........
 01f0 00000000 00000000 ac020100 00000000  ................
 0200 c0020100 00000000 0b007a00 08ff1a31  ..........z....1
 0210 2e08ff1a 9f000000 00000000 00000000  ................
 0220 00000000 00ac0201 00000000 00bc0201  ................
 0230 00000000 00030009 ff9f0000 00000000  ................
 0240 00000000 00000000 0000b802 01000000  ................
 0250 0000bc02 01000000 00000100 5f000000  ............_...
 0260 00000000 00000000 00000000 00f00201  ................
 0270 00000000 002e0301 00000000 0006007c  ...............|
 0280 0008ff1a 9f2e0301 00000000 00440301  .............D..
 0290 00000000 0009007e 007c0021 08ff1a9f  .......~.|.!....
 02a0 4c030100 00000000 60030100 00000000  L.......`.......
 02b0 06007c00 08ff1a9f 00000000 00000000  ..|.............
 02c0 00000000 00000000 f0020100 00000000  ................
 02d0 fc020100 00000000 030009ff 9f000000  ................
 02e0 00000000 00000000 00000000 00f80201  ................
 02f0 00000000 00fc0201 00000000 0001005f  ..............._
 0300 00000000 00000000 00000000 00000000  ................
 0310 fc020100 00000000 0c030100 00000000  ................
 0320 030009ff 9f000000 00000000 00000000  ................
 0330 00000000 00080301 00000000 000c0301  ................
 0340 00000000 0001005f 00000000 00000000  ......._........
 0350 00000000 00000000 0c030100 00000000  ................
 0360 1e030100 00000000 030009ff 9f000000  ................
 0370 00000000 00000000 00000000 001a0301  ................
 0380 00000000 001e0301 00000000 0001005f  ..............._
 0390 00000000 00000000 00000000 00000000  ................
 03a0 2e030100 00000000 3a030100 00000000  ........:.......
 03b0 030009ff 9f000000 00000000 00000000  ................
 03c0 00000000 00360301 00000000 003a0301  .....6.......:..
 03d0 00000000 0001005f 00000000 00000000  ......._........
 03e0 00000000 00000000 4c030100 00000000  ........L.......
 03f0 5c030100 00000000 030009ff 9f000000  \...............
 0400 00000000 00000000 00000000 00580301  .............X..
 0410 00000000 005c0301 00000000 0001005f  .....\........._
 0420 00000000 00000000 00000000 00000000  ................
 0430 4a040100 00000000 4e040100 00000000  J.......N.......
 0440 01005a00 00000000 00000000 00000000  ..Z.............
 0450 0000002c 04010000 00000036 04010000  ...,.......6....
 0460 00000003 0009ff9f 00000000 00000000  ................
 0470 00000000 00000000 32040100 00000000  ........2.......
 0480 36040100 00000000 01005f00 00000000  6........._.....
 0490 00000000 00000000 00000078 04010000  ...........x....
 04a0 00000094 04010000 00000006 007e0008  .............~..
 04b0 ff1a9f94 04010000 000000d8 04010000  ................
 04c0 00000006 007f0008 ff1a9f00 00000000  ................
 04d0 00000000 00000000 00000078 04010000  ...........x....
 04e0 00000086 04010000 00000003 0009ff9f  ................
 04f0 00000000 00000000 00000000 00000000  ................
 0500 82040100 00000000 86040100 00000000  ................
 0510 01005f00 00000000 00000000 00000000  .._.............
 0520 00000094 04010000 000000a4 04010000  ................
 0530 00000003 0009ff9f 00000000 00000000  ................
 0540 00000000 00000000 a0040100 00000000  ................
 0550 a4040100 00000000 01005d00 00000000  ..........].....
 0560 00000000 00000000 000000a4 04010000  ................
 0570 000000b4 04010000 00000003 0009ff9f  ................
 0580 00000000 00000000 00000000 00000000  ................
 0590 b0040100 00000000 b4040100 00000000  ................
 05a0 01005d00 00000000 00000000 00000000  ..].............
 05b0 000000b4 04010000 000000c4 04010000  ................
 05c0 00000003 0009ff9f 00000000 00000000  ................
 05d0 00000000 00000000 c0040100 00000000  ................
 05e0 c4040100 00000000 01005d00 00000000  ..........].....
 05f0 00000000 00000000 000000c4 04010000  ................
 0600 000000d4 04010000 00000003 0009ff9f  ................
 0610 00000000 00000000 00000000 00000000  ................
 0620 d0040100 00000000 d4040100 00000000  ................
 0630 01005e00 00000000 00000000 00000000  ..^.............
 0640 000000f6 04010000 0000000a 05010000  ................
 0650 0000000b 007a0008 ff1a302e 08ff1a9f  .....z....0.....
 0660 00000000 00000000 00000000 00000000  ................
 0670 f6040100 00000000 06050100 00000000  ................
 0680 030009ff 9f000000 00000000 00000000  ................
 0690 00000000 00020501 00000000 00060501  ................
 06a0 00000000 0001005f 00000000 00000000  ......._........
 06b0 00000000 00000000 0e050100 00000000  ................
 06c0 3e050100 00000000 0400404b 249f4005  >.........@K$.@.
 06d0 01000000 00006805 01000000 00000400  ......h.........
 06e0 404b249f 68050100 00000000 90050100  @K$.h...........
 06f0 00000000 01006590 05010000 000000ec  ......e.........
 0700 05010000 00000001 005dec05 01000000  .........]......
 0710 0000b206 01000000 00000100 67da0601  ............g...
 0720 00000000 00140701 00000000 00010067  ...............g
 0730 00000000 00000000 00000000 00000000  ................
 0740 0e050100 00000000 3e050100 00000000  ........>.......
 0750 04000a00 d09f4005 01000000 00006805  ......@.......h.
 0760 01000000 00000400 0a00d09f 68050100  ............h...
 0770 00000000 b2060100 00000000 010066da  ..............f.
 0780 06010000 00000014 07010000 00000001  ................
 0790 00660000 00000000 00000000 00000000  .f..............
 07a0 00002a05 01000000 00003a05 01000000  ..*.......:.....
 07b0 00000300 09ff9f00 00000000 00000000  ................
 07c0 00000000 00000036 05010000 0000003a  .......6.......:
 07d0 05010000 00000001 005e0000 00000000  .........^......
 07e0 00000000 00000000 00006805 01000000  ..........h.....
 07f0 00009005 01000000 00000200 309f9005  ............0...
 0800 01000000 0000e005 01000000 00000100  ................
 0810 6a000000 00000000 00000000 00000000  j...............
 0820 00220601 00000000 00380601 00000000  .".......8......
 0830 00010064 38060100 00000000 3c060100  ...d8.......<...
 0840 00000000 06008400 7f00219f 3c060100  ..........!.<...
 0850 00000000 b2060100 00000000 010064da  ..............d.
 0860 06010000 00000014 07010000 00000001  ................
 0870 00640000 00000000 00000000 00000000  .d..............
 0880 00006805 01000000 00009005 01000000  ..h.............
 0890 00000400 0a00029f 90050100 00000000  ................
 08a0 fb050100 00000000 09008500 7d001c23  ............}..#
 08b0 80049ffb 05010000 000000fc 05010000  ................
 08c0 00000009 00850087 001c2381 049ffc05  ..........#.....
 08d0 01000000 00001206 01000000 00000900  ................
 08e0 85008700 1c238004 9f120601 00000000  .....#..........
 08f0 00b20601 00000000 00060079 0087001c  ...........y....
 0900 9fda0601 00000000 00140701 00000000  ................
 0910 00060079 0087001c 9f000000 00000000  ...y............
 0920 00000000 00000000 00900501 00000000  ................
 0930 00aa0501 00000000 00030009 ff9f0000  ................
 0940 00000000 00000000 00000000 00009a05  ................
 0950 01000000 0000aa05 01000000 00000100  ................
 0960 5b000000 00000000 00000000 00000000  [...............
 0970 00700501 00000000 007c0501 00000000  .p.......|......
 0980 00030009 ff9f0000 00000000 00000000  ................
 0990 00000000 00007805 01000000 00007c05  ......x.......|.
 09a0 01000000 00000100 5f000000 00000000  ........_.......
 09b0 00000000 00000000 00120601 00000000  ................
 09c0 001c0601 00000000 00030009 ff9f0000  ................
 09d0 00000000 00000000 00000000 00001806  ................
 09e0 01000000 00001c06 01000000 00000100  ................
 09f0 5f000000 00000000 00000000 00000000  _...............
 0a00 00220601 00000000 00300601 00000000  .".......0......
 0a10 00030009 ff9f0000 00000000 00000000  ................
 0a20 00000000 00002c06 01000000 00003006  ......,.......0.
 0a30 01000000 00000100 5f000000 00000000  ........_.......
 0a40 00000000 00000000 00e40601 00000000  ................
 0a50 00ec0601 00000000 0001005d 00000000  ...........]....
 0a60 00000000 00000000 00000000 6e060100  ............n...
 0a70 00000000 82060100 00000000 030009ff  ................
 0a80 9f000000 00000000 00000000 00000000  ................
 0a90 007e0601 00000000 00820601 00000000  .~..............
 0aa0 0001005f 00000000 00000000 00000000  ..._............
 0ab0 00000000 92060100 00000000 a2060100  ................
 0ac0 00000000 030009ff 9f000000 00000000  ................
 0ad0 00000000 00000000 009e0601 00000000  ................
 0ae0 00a20601 00000000 0001005e 00000000  ...........^....
 0af0 00000000 00000000 00000000 94000100  ................
 0b00 00000000 b4000100 00000000 01005ab4  ..............Z.
 0b10 00010000 00000054 01010000 00000004  .......T........
 0b20 00f3015a 9f000000 00000000 00000000  ...Z............
 0b30 00000000 00940001 00000000 00f60001  ................
 0b40 00000000 0001005b f6000100 00000000  .......[........
 0b50 54010100 00000000 0400f301 5b9f0000  T...........[...
 0b60 00000000 00000000 00000000 00009400  ................
 0b70 01000000 00002201 01000000 00000100  ......".........
 0b80 5c220101 00000000 00540101 00000000  \".......T......
 0b90 000400f3 015c9f00 00000000 00000000  .....\..........
 0ba0 00000000 00000022 01010000 00000038  .......".......8
 0bb0 01010000 00000001 005e3801 01000000  .........^8.....
 0bc0 00003a01 01000000 00000300 7e7f9f3a  ..:.........~..:
 0bd0 01010000 00000047 01010000 00000001  .......G........
 0be0 005e0000 00000000 00000000 00000000  .^..............
 0bf0 0000a200 01000000 0000b200 01000000  ................
 0c00 00000300 09ff9f00 00000000 00000000  ................
 0c10 00000000 000000ae 00010000 000000b2  ................
 0c20 00010000 00000001 005f0000 00000000  ........._......
 0c30 00000000 00000000 0000b200 01000000  ................
 0c40 0000b400 01000000 00000100 5ab40001  ............Z...
 0c50 00000000 00c00001 00000000 000400f3  ................
 0c60 015a9f00 00000000 00000000 00000000  .Z..............
 0c70 000000bc 00010000 000000c0 00010000  ................
 0c80 00000001 005f0000 00000000 00000000  ....._..........
 0c90 00000000 0000c400 01000000 0000ca00  ................
 0ca0 01000000 00000100 5fca0001 00000000  ........_.......
 0cb0 00d00001 00000000 0003007e c8000000  ...........~....
 0cc0 00000000 00000000 00000000 0000cc00  ................
 0cd0 01000000 0000d000 01000000 00000100  ................
 0ce0 5f000000 00000000 00000000 00000000  _...............
 0cf0 00d00001 00000000 00de0001 00000000  ................
 0d00 0005007b 0040259f 00000000 00000000  ...{.@%.........
 0d10 00000000 00000000 da000100 00000000  ................
 0d20 de000100 00000000 01005f00 00000000  .........._.....
 0d30 00000000 00000000 000000de 00010000  ................
 0d40 000000f2 00010000 00000005 007b0038  .............{.8
 0d50 259f0000 00000000 00000000 00000000  %...............
 0d60 0000ee00 01000000 0000f200 01000000  ................
 0d70 00000100 5f000000 00000000 00000000  ...._...........
 0d80 00000000 00f20001 00000000 00020101  ................
 0d90 00000000 0001005b 00000000 00000000  .......[........
 0da0 00000000 00000000 fe000100 00000000  ................
 0db0 02010100 00000000 01005f00 00000000  .........._.....
 0dc0 00000000 00000000 00000002 01010000  ................
 0dd0 00000022 01010000 00000001 005c2201  ...".........\".
 0de0 01000000 00005401 01000000 00000400  ......T.........
 0df0 f3015c9f 00000000 00000000 00000000  ..\.............
 0e00 00000000 0e010100 00000000 16010100  ................
 0e10 00000000 01005f00 00000000 00000000  ......_.........
 0e20 00000000 00000022 01010000 0000002c  .......".......,
 0e30 01010000 00000003 0009ff9f 00000000  ................
 0e40 00000000 00000000 00000000 28010100  ............(...
 0e50 00000000 2c010100 00000000 01005800  ....,.........X.
 0e60 00000000 00000000 00000000 00000044  ...............D
 0e70 00000000 00000074 00000000 00000001  .......t........
 0e80 005a7400 00000000 00009400 00000000  .Zt.............
 0e90 00000100 5a940000 00000000 009a0000  ....Z...........
 0ea0 00000000 0003007a 7f9f9a00 00000000  .......z........
 0eb0 00005e01 00000000 00000100 5a000000  ..^.........Z...
 0ec0 00000000 00000000 00000000 00540000  .............T..
 0ed0 00000000 00720000 00000000 00020030  .....r.........0
 0ee0 9f720000 00000000 00b20000 00000000  .r..............
 0ef0 0001005c e2000000 00000000 e8000000  ...\............
 0f00 00000000 01005cea 00000000 00000008  ......\.........
 0f10 01000000 00000001 005c2e01 00000000  .........\......
 0f20 00003c01 00000000 00000100 5c500100  ..<.........\P..
 0f30 00000000 00560100 00000000 0001005c  .....V.........\
 0f40 00000000 00000000 00000000 00000000  ................
 0f50 54000000 00000000 72000000 00000000  T.......r.......
 0f60 0200309f 72000000 00000000 b2000000  ..0.r...........
 0f70 00000000 01005be2 00000000 00000012  ......[.........
 0f80 01000000 00000001 005b2e01 00000000  .........[......
 0f90 00004c01 00000000 00000100 5b500100  ..L.........[P..
 0fa0 00000000 005e0100 00000000 0001005b  .....^.........[
 0fb0 00000000 00000000 00000000 00000000  ................
 0fc0 54000000 00000000 72000000 00000000  T.......r.......
 0fd0 0200309f 72000000 00000000 dc000000  ..0.r...........
 0fe0 00000000 01006de2 00000000 00000028  ......m........(
 0ff0 01000000 00000001 006d2e01 00000000  .........m......
 1000 00003001 00000000 00000100 6d320100  ..0.........m2..
 1010 00000000 004a0100 00000000 0001006d  .....J.........m
 1020 50010000 00000000 5e010000 00000000  P.......^.......
 1030 01006d00 00000000 00000000 00000000  ..m.............
 1040 00000078 00000000 00000080 00000000  ...x............
 1050 00000001 005e9a00 00000000 0000a000  .....^..........
 1060 00000000 00000100 5ee20000 00000000  ........^.......
 1070 00040100 00000000 0001005e 00000000  ...........^....
 1080 00000000 00000000 00000000 b2000000  ................
 1090 00000000 da000000 00000000 01006e54  ..............nT
 10a0 01000000 0000005e 01000000 00000001  .......^........
 10b0 006e0000 00000000 00000000 00000000  .n..............
 10c0 0000ae00 00000000 0000b200 00000000  ................
 10d0 00000300 083c9fb2 00000000 000000da  .....<..........
 10e0 00000000 00000001 005c5c01 00000000  .........\\.....
 10f0 00005e01 00000000 00000100 5c000000  ..^.........\...
 1100 00000000 00000000 00000000 00b80000  ................
 1110 00000000 00c80000 00000000 0001005d  ...............]
 1120 c8000000 00000000 d6000000 00000000  ................
 1130 08008e00 7c00253f 1a9fd600 00000000  ....|.%?........
 1140 0000da00 00000000 00000800 8e007c04  ..............|.
 1150 253f1a9f 00000000 00000000 00000000  %?..............
 1160 00000000 cc000000 00000000 d4000000  ................
 1170 00000000 01005d00 00000000 00000000  ......].........
 1180 00000000 000000ee 00000000 00000004  ................
 1190 01000000 00000001 005d0000 00000000  .........]......
 11a0 00000000 00000000 00000801 00000000  ................
 11b0 00002c01 00000000 00000100 5c000000  ..,.........\...
 11c0 00000000 00000000 00000000 00100100  ................
 11d0 00000000 002e0100 00000000 0001005e  ...............^
 11e0 00000000 00000000 00000000 00000000  ................
 11f0 16010000 00000000 1e010000 00000000  ................
 1200 01005d00 00000000 00000000 00000000  ..].............
 1210 00000038 01000000 00000050 01000000  ...8.......P....
 1220 00000001 005e0000 00000000 00000000  .....^..........
 1230 00000000 00003801 00000000 00005001  ......8.......P.
 1240 00000000 00000400 494a249f 00000000  ........IJ$.....
 1250 00000000 00000000 00000000 40010000  ............@...
 1260 00000000 50010000 00000000 01005d00  ....P.........].
 1270 00000000 00000000 00000000 00000000  ................
 1280 00000000 0000000a 00000000 00000001  ................
 1290 005a0a00 00000000 00004400 00000000  .Z........D.....
 12a0 00000400 f3015a9f 00000000 00000000  ......Z.........
 12b0 00000000 00000000 04000000 00000000  ................
 12c0 24000000 00000000 01005e00 00000000  $.........^.....
 12d0 00000000 00000000 0000000e 00000000  ................
 12e0 00000016 00000000 00000001 005d0000  .............]..
 12f0 00000000 00000000 00000000 00002800  ..............(.
 1300 00000000 00003600 00000000 00000100  ......6.........
 1310 5d000000 00000000 00000000 00000000  ]...............
 1320 00                                   .               
Contents of section .debug_ranges:
 0000 02010100 00000000 12010100 00000000  ................
 0010 16010100 00000000 1a010100 00000000  ................
 0020 00000000 00000000 00000000 00000000  ................
 0030 12010100 00000000 16010100 00000000  ................
 0040 1a010100 00000000 2c010100 00000000  ........,.......
 0050 00000000 00000000 00000000 00000000  ................
 0060 5c020100 00000000 8e020100 00000000  \...............
 0070 96020100 00000000 9a020100 00000000  ................
 0080 00000000 00000000 00000000 00000000  ................
 0090 72020100 00000000 76020100 00000000  r.......v.......
 00a0 78020100 00000000 7c020100 00000000  x.......|.......
 00b0 7e020100 00000000 8c020100 00000000  ~...............
 00c0 00000000 00000000 00000000 00000000  ................
 00d0 8e020100 00000000 96020100 00000000  ................
 00e0 9a020100 00000000 c0020100 00000000  ................
 00f0 00000000 00000000 00000000 00000000  ................
 0100 e8020100 00000000 ec020100 00000000  ................
 0110 f0020100 00000000 fc020100 00000000  ................
 0120 00000000 00000000 00000000 00000000  ................
 0130 24030100 00000000 2a030100 00000000  $.......*.......
 0140 2e030100 00000000 3a030100 00000000  ........:.......
 0150 00000000 00000000 00000000 00000000  ................
 0160 14040100 00000000 1c040100 00000000  ................
 0170 1e040100 00000000 3a040100 00000000  ........:.......
 0180 00000000 00000000 00000000 00000000  ................
 0190 14040100 00000000 1c040100 00000000  ................
 01a0 2c040100 00000000 3a040100 00000000  ,.......:.......
 01b0 00000000 00000000 00000000 00000000  ................
 01c0 14040100 00000000 1c040100 00000000  ................
 01d0 2c040100 00000000 36040100 00000000  ,.......6.......
 01e0 00000000 00000000 00000000 00000000  ................
 01f0 70040100 00000000 74040100 00000000  p.......t.......
 0200 78040100 00000000 86040100 00000000  x...............
 0210 00000000 00000000 00000000 00000000  ................
 0220 0e050100 00000000 b2060100 00000000  ................
 0230 da060100 00000000 14070100 00000000  ................
 0240 00000000 00000000 00000000 00000000  ................
 0250 46050100 00000000 48050100 00000000  F.......H.......
 0260 50050100 00000000 66050100 00000000  P.......f.......
 0270 68050100 00000000 66060100 00000000  h.......f.......
 0280 da060100 00000000 14070100 00000000  ................
 0290 00000000 00000000 00000000 00000000  ................
 02a0 46050100 00000000 48050100 00000000  F.......H.......
 02b0 5c050100 00000000 66050100 00000000  \.......f.......
 02c0 8c050100 00000000 fc050100 00000000  ................
 02d0 00000000 00000000 00000000 00000000  ................
 02e0 46050100 00000000 48050100 00000000  F.......H.......
 02f0 5c050100 00000000 5e050100 00000000  \.......^.......
 0300 9e050100 00000000 a6050100 00000000  ................
 0310 aa050100 00000000 e4050100 00000000  ................
 0320 00000000 00000000 00000000 00000000  ................
 0330 8c050100 00000000 9e050100 00000000  ................
 0340 a6050100 00000000 aa050100 00000000  ................
 0350 00000000 00000000 00000000 00000000  ................
 0360 50050100 00000000 5c050100 00000000  P.......\.......
 0370 68050100 00000000 6c050100 00000000  h.......l.......
 0380 70050100 00000000 7c050100 00000000  p.......|.......
 0390 00000000 00000000 00000000 00000000  ................
 03a0 94000100 00000000 54010100 00000000  ........T.......
 03b0 54010100 00000000 14070100 00000000  T...............
 03c0 00000000 00000000 00000000 00000000  ................
 03d0 62000000 00000000 66000000 00000000  b.......f.......
 03e0 ea000000 00000000 04010000 00000000  ................
 03f0 00000000 00000000 00000000 00000000  ................
 0400 70000000 00000000 72000000 00000000  p.......r.......
 0410 a6000000 00000000 da000000 00000000  ................
 0420 50010000 00000000 5e010000 00000000  P.......^.......
 0430 00000000 00000000 00000000 00000000  ................
 0440 70000000 00000000 72000000 00000000  p.......r.......
 0450 b2000000 00000000 d4000000 00000000  ................
 0460 00000000 00000000 00000000 00000000  ................
Contents of section .comment:
 0000 4743433a 2028474e 55292037 2e322e30  GCC: (GNU) 7.2.0
 0010 00                                   .               
Contents of section .debug_frame:
 0000 0c000000 ffffffff 0100017c 010d0200  ...........|....
 0010 24000000 00000000 94000100 00000000  $...............
 0020 c0000000 00000000 420e1044 81028804  ........B..D....
 0030 02b4c142 c8420e00 5c000000 00000000  ...B.B..\.......
 0040 54010100 00000000 c0050000 00000000  T...............
 0050 420e8001 5e810288 04890692 08930a94  B...^...........
 0060 0c950e96 10971298 1499169a 189b1a03  ................
 0070 fe010ac1 42c842c9 42d242d3 42d442d5  ....B.B.B.B.B.B.
 0080 42d642d7 42d842d9 42da42db 420e0042  B.B.B.B.B.B.B..B
 0090 0b000000 00000000 0c000000 ffffffff  ................
 00a0 0100017c 010d0200 14000000 98000000  ...|............
 00b0 14070100 00000000 44000000 00000000  ........D.......
 00c0 24000000 98000000 58070100 00000000  $.......X.......
 00d0 1a010000 00000000 420e5002 580a0e00  ........B.P.X...
 00e0 420b0000 00000000                    B.......        

Disassembly of section .text:

0000000000010000 <_prog_start>:

  .section .text.init
  .option norvc
  .globl _prog_start
_prog_start:
  smp_pause(s1, s2)
   10000:	00800913          	li	s2,8
   10004:	30491073          	csrw	mie,s2
   10008:	00000493          	li	s1,0
   1000c:	f1402973          	csrr	s2,mhartid
   10010:	03249863          	bne	s1,s2,10040 <_prog_start+0x40>
  li sp, (PAYLOAD_DEST + 0x7fff000)
   10014:	00088137          	lui	sp,0x88
   10018:	fff1011b          	addiw	sp,sp,-1
   1001c:	00c11113          	slli	sp,sp,0xc
  call main
   10020:	134000ef          	jal	ra,10154 <main>
  smp_resume(s1, s2)
   10024:	020004b7          	lui	s1,0x2000
   10028:	00100913          	li	s2,1
   1002c:	0124a023          	sw	s2,0(s1) # 2000000 <spinner+0x1fee050>
   10030:	00448493          	addi	s1,s1,4
   10034:	02000937          	lui	s2,0x2000
   10038:	0809091b          	addiw	s2,s2,128
   1003c:	ff24c6e3          	blt	s1,s2,10028 <_prog_start+0x28>
   10040:	10500073          	wfi
   10044:	34402973          	csrr	s2,mip
   10048:	00897913          	andi	s2,s2,8
   1004c:	fe090ae3          	beqz	s2,10040 <_prog_start+0x40>
   10050:	020004b7          	lui	s1,0x2000
   10054:	f1402973          	csrr	s2,mhartid
   10058:	00291913          	slli	s2,s2,0x2
   1005c:	00990933          	add	s2,s2,s1
   10060:	00092023          	sw	zero,0(s2) # 2000000 <spinner+0x1fee050>
   10064:	0004a903          	lw	s2,0(s1) # 2000000 <spinner+0x1fee050>
   10068:	fe091ee3          	bnez	s2,10064 <_prog_start+0x64>
   1006c:	00448493          	addi	s1,s1,4
   10070:	02000937          	lui	s2,0x2000
   10074:	0809091b          	addiw	s2,s2,128
   10078:	ff24c6e3          	blt	s1,s2,10064 <_prog_start+0x64>
  csrr a0, mhartid
   1007c:	f1402573          	csrr	a0,mhartid
  la a1, dtb
   10080:	00001597          	auipc	a1,0x1
   10084:	83858593          	addi	a1,a1,-1992 # 108b8 <dtb>
  li s1, PAYLOAD_DEST
   10088:	0010049b          	addiw	s1,zero,1
   1008c:	01f49493          	slli	s1,s1,0x1f
  jr s1
   10090:	00048067          	jr	s1

0000000000010094 <sd_cmd>:
	// dputs("dummying");     
	return spi_xfer(0xFF);
}

static uint8_t sd_cmd(uint8_t cmd, uint32_t arg, uint8_t crc)
{
   10094:	1141                	addi	sp,sp,-16
   10096:	e406                	sd	ra,8(sp)
   10098:	e022                	sd	s0,0(sp)
	unsigned long n;
	uint8_t r;
	REG32(spi, SPI_REG_CSMODE) = SPI_CSMODE_HOLD;
   1009a:	640017b7          	lui	a5,0x64001
   1009e:	4709                	li	a4,2
   100a0:	cf98                	sw	a4,24(a5)
	REG32(spi, SPI_REG_TXFIFO) = d;
   100a2:	0ff00713          	li	a4,255
   100a6:	c7b8                	sw	a4,72(a5)
		r = REG32(spi, SPI_REG_RXFIFO);
   100a8:	64001737          	lui	a4,0x64001
   100ac:	477c                	lw	a5,76(a4)
	} while (r < 0);
   100ae:	fe07cfe3          	bltz	a5,100ac <sd_cmd+0x18>
	REG32(spi, SPI_REG_TXFIFO) = d;
   100b2:	2501                	sext.w	a0,a0
   100b4:	c728                	sw	a0,72(a4)
		r = REG32(spi, SPI_REG_RXFIFO);
   100b6:	64001737          	lui	a4,0x64001
   100ba:	477c                	lw	a5,76(a4)
	} while (r < 0);
   100bc:	fe07cfe3          	bltz	a5,100ba <sd_cmd+0x26>
	sd_dummy();
	spi_xfer(cmd);
	spi_xfer(arg >> 24);
   100c0:	0185d79b          	srliw	a5,a1,0x18
	REG32(spi, SPI_REG_TXFIFO) = d;
   100c4:	c73c                	sw	a5,72(a4)
		r = REG32(spi, SPI_REG_RXFIFO);
   100c6:	64001737          	lui	a4,0x64001
   100ca:	477c                	lw	a5,76(a4)
	} while (r < 0);
   100cc:	fe07cfe3          	bltz	a5,100ca <sd_cmd+0x36>
	REG32(spi, SPI_REG_TXFIFO) = d;
   100d0:	04072423          	sw	zero,72(a4) # 64001048 <spinner+0x63fef098>
		r = REG32(spi, SPI_REG_RXFIFO);
   100d4:	64001737          	lui	a4,0x64001
   100d8:	477c                	lw	a5,76(a4)
	} while (r < 0);
   100da:	fe07cfe3          	bltz	a5,100d8 <sd_cmd+0x44>
	spi_xfer(arg >> 16);
	spi_xfer(arg >> 8);
   100de:	0085d79b          	srliw	a5,a1,0x8
   100e2:	0ff7f793          	andi	a5,a5,255
	REG32(spi, SPI_REG_TXFIFO) = d;
   100e6:	c73c                	sw	a5,72(a4)
		r = REG32(spi, SPI_REG_RXFIFO);
   100e8:	64001737          	lui	a4,0x64001
   100ec:	477c                	lw	a5,76(a4)
	} while (r < 0);
   100ee:	fe07cfe3          	bltz	a5,100ec <sd_cmd+0x58>
   100f2:	0ff5f593          	andi	a1,a1,255
	REG32(spi, SPI_REG_TXFIFO) = d;
   100f6:	c72c                	sw	a1,72(a4)
		r = REG32(spi, SPI_REG_RXFIFO);
   100f8:	64001737          	lui	a4,0x64001
   100fc:	477c                	lw	a5,76(a4)
	} while (r < 0);
   100fe:	fe07cfe3          	bltz	a5,100fc <sd_cmd+0x68>
	REG32(spi, SPI_REG_TXFIFO) = d;
   10102:	0006079b          	sext.w	a5,a2
   10106:	c73c                	sw	a5,72(a4)
		r = REG32(spi, SPI_REG_RXFIFO);
   10108:	64001737          	lui	a4,0x64001
   1010c:	477c                	lw	a5,76(a4)
	} while (r < 0);
   1010e:	fe07cfe3          	bltz	a5,1010c <sd_cmd+0x78>
	REG32(spi, SPI_REG_TXFIFO) = d;
   10112:	640017b7          	lui	a5,0x64001
	} while (r < 0);
   10116:	3e800713          	li	a4,1000
	REG32(spi, SPI_REG_TXFIFO) = d;
   1011a:	04878593          	addi	a1,a5,72 # 64001048 <spinner+0x63fef098>
   1011e:	0ff00613          	li	a2,255
   10122:	c190                	sw	a2,0(a1)
		r = REG32(spi, SPI_REG_RXFIFO);
   10124:	47e0                	lw	s0,76(a5)
   10126:	2401                	sext.w	s0,s0
	} while (r < 0);
   10128:	fe044ee3          	bltz	s0,10124 <sd_cmd+0x90>
	n = 1000;
	do {
		// dputs("dummy loop");
		r = sd_dummy();
		//dprintf("sd:cmd: %x\r\n", r);             //hyhqude
		if (!(r & 0x80)) {
   1012c:	0184169b          	slliw	a3,s0,0x18
   10130:	4186d69b          	sraiw	a3,a3,0x18
   10134:	0006da63          	bgez	a3,10148 <sd_cmd+0xb4>
   10138:	177d                	addi	a4,a4,-1
//			dprintf("sd:cmd: %hx\r\n", r);
			goto done;
		}
	} while (--n > 0);
   1013a:	f765                	bnez	a4,10122 <sd_cmd+0x8e>
	kputs("sd_cmd: timeout");
   1013c:	00002517          	auipc	a0,0x2
   10140:	b1c50513          	addi	a0,a0,-1252 # 11c58 <dtb+0x13a0>
   10144:	5d0000ef          	jal	ra,10714 <kputs>
done:
	return r;
}
   10148:	0ff47513          	andi	a0,s0,255
   1014c:	60a2                	ld	ra,8(sp)
   1014e:	6402                	ld	s0,0(sp)
   10150:	0141                	addi	sp,sp,16
   10152:	8082                	ret

0000000000010154 <main>:
	kputs("\b ");
	return rc;
}

int main(void)
{
   10154:	7119                	addi	sp,sp,-128
   10156:	fc86                	sd	ra,120(sp)
	uint64_t base_addr;
	uint64_t use_clk_freq;
	REG32(uart, UART_REG_TXCTRL) = UART_TXEN;
   10158:	640007b7          	lui	a5,0x64000
{
   1015c:	f8a2                	sd	s0,112(sp)
   1015e:	f4a6                	sd	s1,104(sp)
   10160:	f0ca                	sd	s2,96(sp)
   10162:	ecce                	sd	s3,88(sp)
   10164:	e8d2                	sd	s4,80(sp)
   10166:	e4d6                	sd	s5,72(sp)
   10168:	e0da                	sd	s6,64(sp)
   1016a:	fc5e                	sd	s7,56(sp)
   1016c:	f862                	sd	s8,48(sp)
   1016e:	f466                	sd	s9,40(sp)
   10170:	f06a                	sd	s10,32(sp)
   10172:	ec6e                	sd	s11,24(sp)
	REG32(uart, UART_REG_TXCTRL) = UART_TXEN;
   10174:	4485                	li	s1,1
   10176:	c784                	sw	s1,8(a5)
    // REG32(uart, UART_REG_DIV)= 1;
	// avoid uart int
	// REG32(uart, UART_REG_RXCTRL) = UART_RXEN;
	base_addr = 0x51000000UL;
	
    dprintf("Info: begin ! @ compiler date: %s, time: %s\r\n", __DATE__,__TIME__);
   10178:	00002617          	auipc	a2,0x2
   1017c:	af060613          	addi	a2,a2,-1296 # 11c68 <dtb+0x13b0>
   10180:	00002597          	auipc	a1,0x2
   10184:	af858593          	addi	a1,a1,-1288 # 11c78 <dtb+0x13c0>
   10188:	00002517          	auipc	a0,0x2
   1018c:	b0050513          	addi	a0,a0,-1280 # 11c88 <dtb+0x13d0>
    dprintf("Info: check tx_dfx value %x, rx_dfx value %x\r\n", _REG64(base_addr, 0xb0), _REG64(base_addr, 0xb8));
   10190:	51000437          	lui	s0,0x51000
    dprintf("Info: begin ! @ compiler date: %s, time: %s\r\n", __DATE__,__TIME__);
   10194:	5c4000ef          	jal	ra,10758 <kprintf>
    dprintf("Info: check tx_dfx value %x, rx_dfx value %x\r\n", _REG64(base_addr, 0xb0), _REG64(base_addr, 0xb8));
   10198:	784c                	ld	a1,176(s0)
   1019a:	7c50                	ld	a2,184(s0)
   1019c:	00002517          	auipc	a0,0x2
   101a0:	b1c50513          	addi	a0,a0,-1252 # 11cb8 <dtb+0x1400>
   101a4:	5b4000ef          	jal	ra,10758 <kprintf>

	_REG32(_AC(0x51000000, UL), 0x40) = 0x00000008; // cfg mig takeover release
   101a8:	47a1                	li	a5,8
   101aa:	c03c                	sw	a5,64(s0)
	
    dprintf("Info: after cfg mig takeover, check tx_dfx value %x, rx_dfx value %x\r\n", _REG64(base_addr, 0xb0), _REG64(base_addr, 0xb8));
   101ac:	784c                	ld	a1,176(s0)
   101ae:	7c50                	ld	a2,184(s0)
   101b0:	00002517          	auipc	a0,0x2
   101b4:	b3850513          	addi	a0,a0,-1224 # 11ce8 <dtb+0x1430>
   101b8:	5a0000ef          	jal	ra,10758 <kprintf>

	// config pll clko0 500M clko1 250M clko2 100M, VCO = 2000M
	_REG32(_AC(0x51000000, UL), 0x10) = (0x0 << 30)/**/ + (50 << 18)/*fbdiv*/ + (0x3 << 15)/*postdiv0_0*/ + (0x0 << 12)/*postdiv1_0*/ + (0x3 << 9)/*postdiv0_1*/ + (0x1 << 6)/*postdiv1_1*/ + (0x4 << 3)/*postdiv0_1*/ + (0x3 << 0)/*postdiv1_1*/;
   101bc:	00c987b7          	lui	a5,0xc98
   101c0:	6637879b          	addiw	a5,a5,1635
   101c4:	c81c                	sw	a5,16(s0)
	
	// need bigger than 1us
	for(int i = 1; i >= 0; i--) {
		dprintf("Info: cfg pll parameter 0x%x - 0x%x\r\n", i, _REG32(_AC(0x51000000, UL), 0x10));
   101c6:	4810                	lw	a2,16(s0)
   101c8:	4585                	li	a1,1
   101ca:	00002517          	auipc	a0,0x2
   101ce:	b6650513          	addi	a0,a0,-1178 # 11d30 <dtb+0x1478>
   101d2:	586000ef          	jal	ra,10758 <kprintf>
   101d6:	4810                	lw	a2,16(s0)
   101d8:	4581                	li	a1,0
   101da:	00002517          	auipc	a0,0x2
   101de:	b5650513          	addi	a0,a0,-1194 # 11d30 <dtb+0x1478>
   101e2:	576000ef          	jal	ra,10758 <kprintf>
	}

	
	_REG32(_AC(0x51000000, UL), 0x100) = (0x0 << 31) + (0x3 << 29) + (0x3 << 23) + (0x2 << 20) + (0x1 << 18);
   101e6:	61a407b7          	lui	a5,0x61a40
   101ea:	10f42023          	sw	a5,256(s0) # 51000100 <spinner+0x50fee150>

	use_clk_freq = 40000UL;

	// judge debug config mode, for switch pll
	if((_REG32(_AC(0x51000000, UL), 0x20) & 0x40000000) == 0x40000000){
   101ee:	501c                	lw	a5,32(s0)
   101f0:	02179713          	slli	a4,a5,0x21
   101f4:	1e074163          	bltz	a4,103d6 <main+0x282>
	}
	else{
		// wait more than 1us
		// check pll lock 100 times
		for(int i = 1; i >= 0; i--) {
			dprintf("Info: test pll state index: 0x%x - 0x%x\r\n", i, _REG32(_AC(0x51000000, UL), 0x20));
   101f8:	5010                	lw	a2,32(s0)
   101fa:	4585                	li	a1,1
   101fc:	00002517          	auipc	a0,0x2
   10200:	b5c50513          	addi	a0,a0,-1188 # 11d58 <dtb+0x14a0>
   10204:	554000ef          	jal	ra,10758 <kprintf>
   10208:	5010                	lw	a2,32(s0)
   1020a:	4581                	li	a1,0
   1020c:	00002517          	auipc	a0,0x2
   10210:	b4c50513          	addi	a0,a0,-1204 # 11d58 <dtb+0x14a0>
   10214:	544000ef          	jal	ra,10758 <kprintf>
		}
		// check pll lock
		if((_REG32(_AC(0x51000000, UL), 0x20) & 0x00000001) == 0x00000001) {
   10218:	501c                	lw	a5,32(s0)
   1021a:	8b85                	andi	a5,a5,1
   1021c:	16079963          	bnez	a5,1038e <main+0x23a>
			_REG32(_AC(0x51000000, UL), 0x18) = (0x2 << 15) + (0x4 << 10) + (0x1 << 5) + (0x1);  // SOC_LSYS cfg pll cfg
			kprintf("Info: end switch work clk to pll output: 0x%x\r\n", _REG32(_AC(0x51000000, UL), 0x20));
			use_clk_freq = 200000UL;
		}
		else {
			_REG32(_AC(0x51000000, UL), 0x18) = (18 << 15) + (20 << 10) + (0x0 << 5) + (0x0);  // SOC_LSYS cfg pll cfg
   10220:	000957b7          	lui	a5,0x95
   10224:	cc1c                	sw	a5,24(s0)
			// donot need switch pll, use ref clk
			// cfg sdram parameter to 10m
			_REG32(_AC(0x51000000, UL), 0x200) = 1000;
   10226:	3e800793          	li	a5,1000
   1022a:	20f42023          	sw	a5,512(s0)
			_REG32(_AC(0x51000000, UL), 0x208) = 77;
   1022e:	04d00793          	li	a5,77
   10232:	20f42423          	sw	a5,520(s0)
			_REG32(_AC(0x51000000, UL), 0x210) = 1;
   10236:	20942823          	sw	s1,528(s0)
			_REG32(_AC(0x51000000, UL), 0x218) = 1;
   1023a:	20942c23          	sw	s1,536(s0)
			_REG32(_AC(0x51000000, UL), 0x220) = 1;
   1023e:	22942023          	sw	s1,544(s0)

			kprintf("Info: donot need switch work clk to pll output: 0x%x\r\n", _REG32(_AC(0x51000000, UL), 0x20));
   10242:	500c                	lw	a1,32(s0)
   10244:	00002517          	auipc	a0,0x2
   10248:	be450513          	addi	a0,a0,-1052 # 11e28 <dtb+0x1570>
   1024c:	50c000ef          	jal	ra,10758 <kprintf>
	// base_addr = 0x50000000UL; 
	// for(long i = 0; i <= 500; i++) {
	// 	dprintf("Info: read value %x @ addr %x\r\n", _REG64(base_addr, 0x0), base_addr);
	// }

	kputs("INIT\n");
   10250:	00002517          	auipc	a0,0x2
   10254:	c1050513          	addi	a0,a0,-1008 # 11e60 <dtb+0x15a8>
   10258:	4bc000ef          	jal	ra,10714 <kputs>
	dprintf("Info: cfg SPI_REG_SCKDIV value %x\r\n", sclkdiv);
   1025c:	458d                	li	a1,3
   1025e:	00002517          	auipc	a0,0x2
   10262:	c0a50513          	addi	a0,a0,-1014 # 11e68 <dtb+0x15b0>
   10266:	4f2000ef          	jal	ra,10758 <kprintf>
	REG32(spi, SPI_REG_SCKDIV) = sclkdiv;
   1026a:	470d                	li	a4,3
   1026c:	640017b7          	lui	a5,0x64001
   10270:	c398                	sw	a4,0(a5)
	REG32(spi, SPI_REG_TXFIFO) = d;
   10272:	64001437          	lui	s0,0x64001
	REG32(spi, SPI_REG_CSMODE) = SPI_CSMODE_OFF;
   10276:	cf98                	sw	a4,24(a5)
	REG32(spi, SPI_REG_TXFIFO) = d;
   10278:	04840613          	addi	a2,s0,72 # 64001048 <spinner+0x63fef098>
	REG32(spi, SPI_REG_CSMODE) = SPI_CSMODE_OFF;
   1027c:	4729                	li	a4,10
	REG32(spi, SPI_REG_TXFIFO) = d;
   1027e:	0ff00693          	li	a3,255
   10282:	c214                	sw	a3,0(a2)
		r = REG32(spi, SPI_REG_RXFIFO);
   10284:	447c                	lw	a5,76(s0)
	} while (r < 0);
   10286:	fe07cfe3          	bltz	a5,10284 <main+0x130>
   1028a:	177d                	addi	a4,a4,-1
	for (i = 10; i > 0; i--) {
   1028c:	fb7d                	bnez	a4,10282 <main+0x12e>
	dputs("CMD0");
   1028e:	00002517          	auipc	a0,0x2
   10292:	c0250513          	addi	a0,a0,-1022 # 11e90 <dtb+0x15d8>
	REG32(spi, SPI_REG_CSMODE) = SPI_CSMODE_AUTO;
   10296:	00042c23          	sw	zero,24(s0)
	dputs("CMD0");
   1029a:	47a000ef          	jal	ra,10714 <kputs>
	rc = (sd_cmd(0x40, 0, 0x95) != 0x01);
   1029e:	09500613          	li	a2,149
   102a2:	4581                	li	a1,0
   102a4:	04000513          	li	a0,64
   102a8:	dedff0ef          	jal	ra,10094 <sd_cmd>
	REG32(spi, SPI_REG_TXFIFO) = d;
   102ac:	0ff00793          	li	a5,255
   102b0:	c43c                	sw	a5,72(s0)
		r = REG32(spi, SPI_REG_RXFIFO);
   102b2:	64001437          	lui	s0,0x64001
   102b6:	447c                	lw	a5,76(s0)
	} while (r < 0);
   102b8:	fe07cfe3          	bltz	a5,102b6 <main+0x162>
	REG32(spi, SPI_REG_CSMODE) = SPI_CSMODE_AUTO;
   102bc:	00042c23          	sw	zero,24(s0) # 64001018 <spinner+0x63fef068>
	//  		dprintf("Info: read value %x @ addr %x\r\n", _REG64(base_addr + i, 0x0), base_addr + i);
	//  	}
	//  }
	
	sd_poweron(use_clk_freq);
	if (sd_cmd0() ||
   102c0:	4785                	li	a5,1
   102c2:	0af51063          	bne	a0,a5,10362 <main+0x20e>
	dputs("CMD8");
   102c6:	00002517          	auipc	a0,0x2
   102ca:	bd250513          	addi	a0,a0,-1070 # 11e98 <dtb+0x15e0>
   102ce:	446000ef          	jal	ra,10714 <kputs>
	rc = (sd_cmd(0x48, 0x000001AA, 0x87) != 0x01);
   102d2:	08700613          	li	a2,135
   102d6:	1aa00593          	li	a1,426
   102da:	04800513          	li	a0,72
   102de:	db7ff0ef          	jal	ra,10094 <sd_cmd>
   102e2:	0005071b          	sext.w	a4,a0
   102e6:	177d                	addi	a4,a4,-1
	REG32(spi, SPI_REG_TXFIFO) = d;
   102e8:	0ff00793          	li	a5,255
	rc = (sd_cmd(0x48, 0x000001AA, 0x87) != 0x01);
   102ec:	00e03633          	snez	a2,a4
	REG32(spi, SPI_REG_TXFIFO) = d;
   102f0:	c43c                	sw	a5,72(s0)
		r = REG32(spi, SPI_REG_RXFIFO);
   102f2:	64001737          	lui	a4,0x64001
   102f6:	477c                	lw	a5,76(a4)
	} while (r < 0);
   102f8:	fe07cfe3          	bltz	a5,102f6 <main+0x1a2>
	REG32(spi, SPI_REG_TXFIFO) = d;
   102fc:	0ff00793          	li	a5,255
   10300:	c73c                	sw	a5,72(a4)
		r = REG32(spi, SPI_REG_RXFIFO);
   10302:	64001737          	lui	a4,0x64001
   10306:	477c                	lw	a5,76(a4)
	} while (r < 0);
   10308:	fe07cfe3          	bltz	a5,10306 <main+0x1b2>
	REG32(spi, SPI_REG_TXFIFO) = d;
   1030c:	0ff00793          	li	a5,255
   10310:	c73c                	sw	a5,72(a4)
		r = REG32(spi, SPI_REG_RXFIFO);
   10312:	640016b7          	lui	a3,0x64001
   10316:	46fc                	lw	a5,76(a3)
   10318:	2781                	sext.w	a5,a5
	} while (r < 0);
   1031a:	fe07cee3          	bltz	a5,10316 <main+0x1c2>
	rc |= ((sd_dummy() & 0xF) != 0x1); /* voltage */
   1031e:	00f7f713          	andi	a4,a5,15
   10322:	177d                	addi	a4,a4,-1
	REG32(spi, SPI_REG_TXFIFO) = d;
   10324:	0ff00793          	li	a5,255
   10328:	c6bc                	sw	a5,72(a3)
	rc |= ((sd_dummy() & 0xF) != 0x1); /* voltage */
   1032a:	00e03733          	snez	a4,a4
		r = REG32(spi, SPI_REG_RXFIFO);
   1032e:	640016b7          	lui	a3,0x64001
   10332:	46fc                	lw	a5,76(a3)
   10334:	2781                	sext.w	a5,a5
	} while (r < 0);
   10336:	fe07cee3          	bltz	a5,10332 <main+0x1de>
	rc |= (sd_dummy() != 0xAA); /* check pattern */
   1033a:	0ff7f793          	andi	a5,a5,255
   1033e:	f5678793          	addi	a5,a5,-170 # 64000f56 <spinner+0x63feefa6>
   10342:	8f51                	or	a4,a4,a2
   10344:	00f037b3          	snez	a5,a5
   10348:	00f76633          	or	a2,a4,a5
	REG32(spi, SPI_REG_TXFIFO) = d;
   1034c:	0ff00793          	li	a5,255
   10350:	c6bc                	sw	a5,72(a3)
		r = REG32(spi, SPI_REG_RXFIFO);
   10352:	64001737          	lui	a4,0x64001
   10356:	477c                	lw	a5,76(a4)
	} while (r < 0);
   10358:	fe07cfe3          	bltz	a5,10356 <main+0x202>
	REG32(spi, SPI_REG_CSMODE) = SPI_CSMODE_AUTO;
   1035c:	00072c23          	sw	zero,24(a4) # 64001018 <spinner+0x63fef068>
	if (sd_cmd0() ||
   10360:	c645                	beqz	a2,10408 <main+0x2b4>
	    sd_cmd8() ||
	    sd_acmd41() ||
	    sd_cmd58() ||
	    sd_cmd16() ||
	    copy()) {
		kputs("ERROR");
   10362:	00002517          	auipc	a0,0x2
   10366:	bee50513          	addi	a0,a0,-1042 # 11f50 <dtb+0x1698>
   1036a:	3aa000ef          	jal	ra,10714 <kputs>
		return 1;
   1036e:	4505                	li	a0,1
	// print 8000_0000
	dprintf("Info: after sd copy image , ddr value %x - %x\r\n", _REG64(0x80000000UL, 0x0), _REG64(0x80000000UL, 0x8));
	//kprintf(SHUTDOWN_FLAG_STR);
	__asm__ __volatile__ ("fence.i" : : : "memory");
	return 0;
}
   10370:	70e6                	ld	ra,120(sp)
   10372:	7446                	ld	s0,112(sp)
   10374:	74a6                	ld	s1,104(sp)
   10376:	7906                	ld	s2,96(sp)
   10378:	69e6                	ld	s3,88(sp)
   1037a:	6a46                	ld	s4,80(sp)
   1037c:	6aa6                	ld	s5,72(sp)
   1037e:	6b06                	ld	s6,64(sp)
   10380:	7be2                	ld	s7,56(sp)
   10382:	7c42                	ld	s8,48(sp)
   10384:	7ca2                	ld	s9,40(sp)
   10386:	7d02                	ld	s10,32(sp)
   10388:	6de2                	ld	s11,24(sp)
   1038a:	6109                	addi	sp,sp,128
   1038c:	8082                	ret
			kprintf("Info: begin switch work clk to pll output: 0x%x\r\n", _REG32(_AC(0x51000000, UL), 0x20));
   1038e:	500c                	lw	a1,32(s0)
   10390:	00002517          	auipc	a0,0x2
   10394:	a3050513          	addi	a0,a0,-1488 # 11dc0 <dtb+0x1508>
   10398:	3c0000ef          	jal	ra,10758 <kprintf>
			_REG32(_AC(0x51000000, UL), 0x200) = 5000;
   1039c:	6785                	lui	a5,0x1
   1039e:	3887879b          	addiw	a5,a5,904
   103a2:	20f42023          	sw	a5,512(s0)
			_REG32(_AC(0x51000000, UL), 0x208) = 1561;
   103a6:	61900793          	li	a5,1561
   103aa:	20f42423          	sw	a5,520(s0)
			_REG32(_AC(0x51000000, UL), 0x210) = 2;
   103ae:	4789                	li	a5,2
   103b0:	20f42823          	sw	a5,528(s0)
			_REG32(_AC(0x51000000, UL), 0x218) = 2;
   103b4:	20f42c23          	sw	a5,536(s0)
			_REG32(_AC(0x51000000, UL), 0x220) = 4;
   103b8:	4791                	li	a5,4
   103ba:	22f42023          	sw	a5,544(s0)
			_REG32(_AC(0x51000000, UL), 0x18) = (0x2 << 15) + (0x4 << 10) + (0x1 << 5) + (0x1);  // SOC_LSYS cfg pll cfg
   103be:	67c5                	lui	a5,0x11
   103c0:	0217879b          	addiw	a5,a5,33
   103c4:	cc1c                	sw	a5,24(s0)
			kprintf("Info: end switch work clk to pll output: 0x%x\r\n", _REG32(_AC(0x51000000, UL), 0x20));
   103c6:	500c                	lw	a1,32(s0)
   103c8:	00002517          	auipc	a0,0x2
   103cc:	a3050513          	addi	a0,a0,-1488 # 11df8 <dtb+0x1540>
   103d0:	388000ef          	jal	ra,10758 <kprintf>
   103d4:	bdb5                	j	10250 <main+0xfc>
		_REG32(_AC(0x51000000, UL), 0x18) = (18 << 15) + (20 << 10) + (0x0 << 5) + (0x0);  // SOC_LSYS cfg pll cfg
   103d6:	000957b7          	lui	a5,0x95
   103da:	cc1c                	sw	a5,24(s0)
		_REG32(_AC(0x51000000, UL), 0x200) = 1000;
   103dc:	3e800793          	li	a5,1000
   103e0:	20f42023          	sw	a5,512(s0)
		_REG32(_AC(0x51000000, UL), 0x208) = 77;
   103e4:	04d00793          	li	a5,77
   103e8:	20f42423          	sw	a5,520(s0)
		_REG32(_AC(0x51000000, UL), 0x210) = 1;
   103ec:	20942823          	sw	s1,528(s0)
		_REG32(_AC(0x51000000, UL), 0x218) = 1;
   103f0:	20942c23          	sw	s1,536(s0)
		_REG32(_AC(0x51000000, UL), 0x220) = 1;
   103f4:	22942023          	sw	s1,544(s0)
		kprintf("Info: donot need switch work clk to pll output: 0x%x", _REG32(_AC(0x51000000, UL), 0x20));
   103f8:	500c                	lw	a1,32(s0)
   103fa:	00002517          	auipc	a0,0x2
   103fe:	98e50513          	addi	a0,a0,-1650 # 11d88 <dtb+0x14d0>
   10402:	356000ef          	jal	ra,10758 <kprintf>
   10406:	b5a9                	j	10250 <main+0xfc>
	dputs("ACMD41");
   10408:	00002517          	auipc	a0,0x2
   1040c:	a9850513          	addi	a0,a0,-1384 # 11ea0 <dtb+0x15e8>
   10410:	304000ef          	jal	ra,10714 <kputs>
	REG32(spi, SPI_REG_TXFIFO) = d;
   10414:	64001437          	lui	s0,0x64001
   10418:	0ff00913          	li	s2,255
	} while (r == 0x01);
   1041c:	4485                	li	s1,1
	sd_cmd(0x77, 0, 0x65);
   1041e:	06500613          	li	a2,101
   10422:	4581                	li	a1,0
   10424:	07700513          	li	a0,119
   10428:	c6dff0ef          	jal	ra,10094 <sd_cmd>
	REG32(spi, SPI_REG_TXFIFO) = d;
   1042c:	05242423          	sw	s2,72(s0) # 64001048 <spinner+0x63fef098>
		r = REG32(spi, SPI_REG_RXFIFO);
   10430:	447c                	lw	a5,76(s0)
	} while (r < 0);
   10432:	fe07cfe3          	bltz	a5,10430 <main+0x2dc>
	REG32(spi, SPI_REG_CSMODE) = SPI_CSMODE_AUTO;
   10436:	00042c23          	sw	zero,24(s0)
		r = sd_cmd(0x69, 0x40000000, 0x77); /* HCS = 1 */
   1043a:	07700613          	li	a2,119
   1043e:	400005b7          	lui	a1,0x40000
   10442:	06900513          	li	a0,105
   10446:	c4fff0ef          	jal	ra,10094 <sd_cmd>
	} while (r == 0x01);
   1044a:	fc950ae3          	beq	a0,s1,1041e <main+0x2ca>
	    sd_cmd8() ||
   1044e:	f0051ae3          	bnez	a0,10362 <main+0x20e>
	dputs("CMD58");
   10452:	00002517          	auipc	a0,0x2
   10456:	a5650513          	addi	a0,a0,-1450 # 11ea8 <dtb+0x15f0>
   1045a:	2ba000ef          	jal	ra,10714 <kputs>
	rc = (sd_cmd(0x7A, 0, 0xFD) != 0x00);
   1045e:	0fd00613          	li	a2,253
   10462:	4581                	li	a1,0
   10464:	07a00513          	li	a0,122
   10468:	c2dff0ef          	jal	ra,10094 <sd_cmd>
   1046c:	0005071b          	sext.w	a4,a0
	REG32(spi, SPI_REG_TXFIFO) = d;
   10470:	0ff00793          	li	a5,255
	rc = (sd_cmd(0x7A, 0, 0xFD) != 0x00);
   10474:	00e03733          	snez	a4,a4
	REG32(spi, SPI_REG_TXFIFO) = d;
   10478:	c43c                	sw	a5,72(s0)
		r = REG32(spi, SPI_REG_RXFIFO);
   1047a:	640016b7          	lui	a3,0x64001
   1047e:	46fc                	lw	a5,76(a3)
   10480:	2781                	sext.w	a5,a5
	} while (r < 0);
   10482:	fe07cee3          	bltz	a5,1047e <main+0x32a>
	rc |= ((sd_dummy() & 0x80) != 0x80); /* Power up status */
   10486:	0ff7f793          	andi	a5,a5,255
   1048a:	4077d79b          	sraiw	a5,a5,0x7
   1048e:	0017c793          	xori	a5,a5,1
   10492:	8fd9                	or	a5,a5,a4
	REG32(spi, SPI_REG_TXFIFO) = d;
   10494:	0ff00713          	li	a4,255
   10498:	c6b8                	sw	a4,72(a3)
		r = REG32(spi, SPI_REG_RXFIFO);
   1049a:	64001737          	lui	a4,0x64001
   1049e:	4774                	lw	a3,76(a4)
	} while (r < 0);
   104a0:	fe06cfe3          	bltz	a3,1049e <main+0x34a>
	REG32(spi, SPI_REG_TXFIFO) = d;
   104a4:	0ff00693          	li	a3,255
   104a8:	c734                	sw	a3,72(a4)
		r = REG32(spi, SPI_REG_RXFIFO);
   104aa:	64001737          	lui	a4,0x64001
   104ae:	4774                	lw	a3,76(a4)
	} while (r < 0);
   104b0:	fe06cfe3          	bltz	a3,104ae <main+0x35a>
	REG32(spi, SPI_REG_TXFIFO) = d;
   104b4:	0ff00693          	li	a3,255
   104b8:	c734                	sw	a3,72(a4)
		r = REG32(spi, SPI_REG_RXFIFO);
   104ba:	64001737          	lui	a4,0x64001
   104be:	4774                	lw	a3,76(a4)
	} while (r < 0);
   104c0:	fe06cfe3          	bltz	a3,104be <main+0x36a>
	REG32(spi, SPI_REG_TXFIFO) = d;
   104c4:	0ff00693          	li	a3,255
   104c8:	c734                	sw	a3,72(a4)
		r = REG32(spi, SPI_REG_RXFIFO);
   104ca:	64001437          	lui	s0,0x64001
   104ce:	4478                	lw	a4,76(s0)
	} while (r < 0);
   104d0:	fe074fe3          	bltz	a4,104ce <main+0x37a>
	REG32(spi, SPI_REG_CSMODE) = SPI_CSMODE_AUTO;
   104d4:	00042c23          	sw	zero,24(s0) # 64001018 <spinner+0x63fef068>
	    sd_acmd41() ||
   104d8:	e80795e3          	bnez	a5,10362 <main+0x20e>
	dputs("CMD16");
   104dc:	00002517          	auipc	a0,0x2
   104e0:	9d450513          	addi	a0,a0,-1580 # 11eb0 <dtb+0x15f8>
   104e4:	230000ef          	jal	ra,10714 <kputs>
	rc = (sd_cmd(0x50, 0x200, 0x15) != 0x00);
   104e8:	4655                	li	a2,21
   104ea:	20000593          	li	a1,512
   104ee:	05000513          	li	a0,80
   104f2:	ba3ff0ef          	jal	ra,10094 <sd_cmd>
	REG32(spi, SPI_REG_TXFIFO) = d;
   104f6:	0ff00793          	li	a5,255
   104fa:	c43c                	sw	a5,72(s0)
		r = REG32(spi, SPI_REG_RXFIFO);
   104fc:	64001437          	lui	s0,0x64001
   10500:	447c                	lw	a5,76(s0)
	} while (r < 0);
   10502:	fe07cfe3          	bltz	a5,10500 <main+0x3ac>
	REG32(spi, SPI_REG_CSMODE) = SPI_CSMODE_AUTO;
   10506:	00042c23          	sw	zero,24(s0) # 64001018 <spinner+0x63fef068>
	    sd_cmd58() ||
   1050a:	e4051ce3          	bnez	a0,10362 <main+0x20e>
	dputs("CMD18");
   1050e:	00002517          	auipc	a0,0x2
   10512:	9aa50513          	addi	a0,a0,-1622 # 11eb8 <dtb+0x1600>
   10516:	1fe000ef          	jal	ra,10714 <kputs>
	if (sd_cmd(0x52, 0, 0xE1) != 0x00) {
   1051a:	0e100613          	li	a2,225
   1051e:	4581                	li	a1,0
   10520:	05200513          	li	a0,82
   10524:	b71ff0ef          	jal	ra,10094 <sd_cmd>
   10528:	cd01                	beqz	a0,10540 <main+0x3ec>
	REG32(spi, SPI_REG_TXFIFO) = d;
   1052a:	0ff00793          	li	a5,255
   1052e:	c43c                	sw	a5,72(s0)
		r = REG32(spi, SPI_REG_RXFIFO);
   10530:	640017b7          	lui	a5,0x64001
   10534:	47f8                	lw	a4,76(a5)
	} while (r < 0);
   10536:	fe074fe3          	bltz	a4,10534 <main+0x3e0>
	REG32(spi, SPI_REG_CSMODE) = SPI_CSMODE_AUTO;
   1053a:	0007ac23          	sw	zero,24(a5) # 64001018 <spinner+0x63fef068>
   1053e:	b515                	j	10362 <main+0x20e>
	} while (--i > 0);
   10540:	40d00b93          	li	s7,1037
	volatile uint8_t *p = (void *)(PAYLOAD_DEST);
   10544:	4a85                	li	s5,1
	crc ^= (crc & 0xff) << 5;
   10546:	6909                	lui	s2,0x2
	} while (--i > 0);
   10548:	015b9793          	slli	a5,s7,0x15
	long i = PAYLOAD_SIZE;
   1054c:	6b35                	lui	s6,0xd
	volatile uint8_t *p = (void *)(PAYLOAD_DEST);
   1054e:	0afe                	slli	s5,s5,0x1f
	REG32(spi, SPI_REG_TXFIFO) = d;
   10550:	64001db7          	lui	s11,0x64001
   10554:	0ff00c13          	li	s8,255
   10558:	0ff00413          	li	s0,255
	crc ^= (crc & 0xff) << 5;
   1055c:	1901                	addi	s2,s2,-32
			dprintf("data %x, crc %x \r\n", x, crc);
   1055e:	00002997          	auipc	s3,0x2
   10562:	96298993          	addi	s3,s3,-1694 # 11ec0 <dtb+0x1608>
	} while (--i > 0);
   10566:	e43e                	sd	a5,8(sp)
	REG32(spi, SPI_REG_TXFIFO) = d;
   10568:	048d8693          	addi	a3,s11,72 # 64001048 <spinner+0x63fef098>
		while (sd_dummy() != 0xFE);
   1056c:	0fe00713          	li	a4,254
	REG32(spi, SPI_REG_TXFIFO) = d;
   10570:	c280                	sw	s0,0(a3)
		r = REG32(spi, SPI_REG_RXFIFO);
   10572:	04cda783          	lw	a5,76(s11)
   10576:	2781                	sext.w	a5,a5
	} while (r < 0);
   10578:	fe07cde3          	bltz	a5,10572 <main+0x41e>
		while (sd_dummy() != 0xFE);
   1057c:	0ff7f793          	andi	a5,a5,255
   10580:	fee798e3          	bne	a5,a4,10570 <main+0x41c>
   10584:	200a8493          	addi	s1,s5,512
   10588:	86d6                	mv	a3,s5
		crc = 0;
   1058a:	4d01                	li	s10,0
	REG32(spi, SPI_REG_TXFIFO) = d;
   1058c:	048d8a13          	addi	s4,s11,72
   10590:	008a2023          	sw	s0,0(s4)
		r = REG32(spi, SPI_REG_RXFIFO);
   10594:	04cda583          	lw	a1,76(s11)
   10598:	2581                	sext.w	a1,a1
	} while (r < 0);
   1059a:	fe05cde3          	bltz	a1,10594 <main+0x440>
	crc ^= data;
   1059e:	008d571b          	srliw	a4,s10,0x8
   105a2:	008d1793          	slli	a5,s10,0x8
	return r;
   105a6:	0ff5f613          	andi	a2,a1,255
	crc ^= data;
   105aa:	8fd9                	or	a5,a5,a4
   105ac:	8fb1                	xor	a5,a5,a2
   105ae:	03079713          	slli	a4,a5,0x30
   105b2:	9341                	srli	a4,a4,0x30
	crc ^= (uint8_t)(crc >> 4) & 0xf;
   105b4:	0047579b          	srliw	a5,a4,0x4
   105b8:	8bbd                	andi	a5,a5,15
   105ba:	8fb9                	xor	a5,a5,a4
	crc ^= crc << 12;
   105bc:	00c79713          	slli	a4,a5,0xc
   105c0:	8fb9                	xor	a5,a5,a4
   105c2:	0107979b          	slliw	a5,a5,0x10
   105c6:	4107d79b          	sraiw	a5,a5,0x10
	crc ^= (crc & 0xff) << 5;
   105ca:	0107971b          	slliw	a4,a5,0x10
   105ce:	0107571b          	srliw	a4,a4,0x10
   105d2:	0057171b          	slliw	a4,a4,0x5
   105d6:	01277733          	and	a4,a4,s2
   105da:	8fb9                	xor	a5,a5,a4
   105dc:	03079d13          	slli	s10,a5,0x30
   105e0:	030d5d13          	srli	s10,s10,0x30
			dprintf("data %x, crc %x \r\n", x, crc);
   105e4:	000d0c9b          	sext.w	s9,s10
			*p++ = x;
   105e8:	00168b93          	addi	s7,a3,1 # 64001001 <spinner+0x63fef051>
   105ec:	00c68023          	sb	a2,0(a3)
			dprintf("data %x, crc %x \r\n", x, crc);
   105f0:	0ff5f593          	andi	a1,a1,255
   105f4:	8666                	mv	a2,s9
   105f6:	854e                	mv	a0,s3
   105f8:	160000ef          	jal	ra,10758 <kprintf>
		} while (--n > 0);
   105fc:	01748463          	beq	s1,s7,10604 <main+0x4b0>
   10600:	86de                	mv	a3,s7
   10602:	b779                	j	10590 <main+0x43c>
	REG32(spi, SPI_REG_TXFIFO) = d;
   10604:	640017b7          	lui	a5,0x64001
   10608:	1ffa8713          	addi	a4,s5,511
   1060c:	0587a423          	sw	s8,72(a5) # 64001048 <spinner+0x63fef098>
   10610:	8aa6                	mv	s5,s1
		r = REG32(spi, SPI_REG_RXFIFO);
   10612:	04cda783          	lw	a5,76(s11)
   10616:	2781                	sext.w	a5,a5
	} while (r < 0);
   10618:	fe07cde3          	bltz	a5,10612 <main+0x4be>
		crc_exp = ((uint16_t)sd_dummy() << 8);
   1061c:	0ff7fa13          	andi	s4,a5,255
   10620:	0a22                	slli	s4,s4,0x8
	REG32(spi, SPI_REG_TXFIFO) = d;
   10622:	058da423          	sw	s8,72(s11)
		r = REG32(spi, SPI_REG_RXFIFO);
   10626:	04cda783          	lw	a5,76(s11)
   1062a:	2781                	sext.w	a5,a5
	} while (r < 0);
   1062c:	fe07cde3          	bltz	a5,10626 <main+0x4d2>
		dprintf("data %x at %x, crc %x - %x\r\n", (uint32_t)(*p), p-4, crc, crc_exp);
   10630:	00174583          	lbu	a1,1(a4) # 64001001 <spinner+0x63fef051>
		crc_exp |= sd_dummy();
   10634:	0ff7f793          	andi	a5,a5,255
		dprintf("data %x at %x, crc %x - %x\r\n", (uint32_t)(*p), p-4, crc, crc_exp);
   10638:	00fa6a33          	or	s4,s4,a5
   1063c:	8752                	mv	a4,s4
   1063e:	86e6                	mv	a3,s9
   10640:	ffc48613          	addi	a2,s1,-4
   10644:	00002517          	auipc	a0,0x2
   10648:	89450513          	addi	a0,a0,-1900 # 11ed8 <dtb+0x1620>
   1064c:	10c000ef          	jal	ra,10758 <kprintf>
		if (crc != crc_exp) {
   10650:	014c8863          	beq	s9,s4,10660 <main+0x50c>
			kputs("\b- CRC mismatch ");
   10654:	00002517          	auipc	a0,0x2
   10658:	8a450513          	addi	a0,a0,-1884 # 11ef8 <dtb+0x1640>
   1065c:	0b8000ef          	jal	ra,10714 <kputs>
		if (SPIN_UPDATE(i)) {
   10660:	03fb7793          	andi	a5,s6,63
   10664:	cbbd                	beqz	a5,106da <main+0x586>
	} while (--i > 0);
   10666:	67a2                	ld	a5,8(sp)
   10668:	1b7d                	addi	s6,s6,-1
   1066a:	eef49fe3          	bne	s1,a5,10568 <main+0x414>
	REG32(spi, SPI_REG_TXFIFO) = d;
   1066e:	640017b7          	lui	a5,0x64001
   10672:	0ff00713          	li	a4,255
   10676:	c7b8                	sw	a4,72(a5)
		r = REG32(spi, SPI_REG_RXFIFO);
   10678:	64001437          	lui	s0,0x64001
   1067c:	447c                	lw	a5,76(s0)
	} while (r < 0);
   1067e:	fe07cfe3          	bltz	a5,1067c <main+0x528>
	REG32(spi, SPI_REG_CSMODE) = SPI_CSMODE_AUTO;
   10682:	00042c23          	sw	zero,24(s0) # 64001018 <spinner+0x63fef068>
	sd_cmd(0x4C, 0, 0x01);
   10686:	4605                	li	a2,1
   10688:	4581                	li	a1,0
   1068a:	04c00513          	li	a0,76
   1068e:	a07ff0ef          	jal	ra,10094 <sd_cmd>
	REG32(spi, SPI_REG_TXFIFO) = d;
   10692:	0ff00793          	li	a5,255
   10696:	c43c                	sw	a5,72(s0)
		r = REG32(spi, SPI_REG_RXFIFO);
   10698:	640017b7          	lui	a5,0x64001
   1069c:	47f8                	lw	a4,76(a5)
	} while (r < 0);
   1069e:	fe074fe3          	bltz	a4,1069c <main+0x548>
	REG32(spi, SPI_REG_CSMODE) = SPI_CSMODE_AUTO;
   106a2:	0007ac23          	sw	zero,24(a5) # 64001018 <spinner+0x63fef068>
	kputs("\b ");
   106a6:	00002517          	auipc	a0,0x2
   106aa:	86a50513          	addi	a0,a0,-1942 # 11f10 <dtb+0x1658>
   106ae:	066000ef          	jal	ra,10714 <kputs>
	kputs("BOOT\n");
   106b2:	00002517          	auipc	a0,0x2
   106b6:	86650513          	addi	a0,a0,-1946 # 11f18 <dtb+0x1660>
   106ba:	05a000ef          	jal	ra,10714 <kputs>
	dprintf("Info: after sd copy image , ddr value %x - %x\r\n", _REG64(0x80000000UL, 0x0), _REG64(0x80000000UL, 0x8));
   106be:	4785                	li	a5,1
   106c0:	07fe                	slli	a5,a5,0x1f
   106c2:	638c                	ld	a1,0(a5)
   106c4:	6790                	ld	a2,8(a5)
   106c6:	00002517          	auipc	a0,0x2
   106ca:	85a50513          	addi	a0,a0,-1958 # 11f20 <dtb+0x1668>
   106ce:	08a000ef          	jal	ra,10758 <kprintf>
	__asm__ __volatile__ ("fence.i" : : : "memory");
   106d2:	0000100f          	fence.i
	return 0;
   106d6:	4501                	li	a0,0
   106d8:	b961                	j	10370 <main+0x21c>
{
	volatile uint32_t *tx = &REG32(uart, UART_REG_TXFIFO);
#ifdef __riscv_atomic
	int32_t r;
	do {
		__asm__ __volatile__ (
   106da:	640007b7          	lui	a5,0x64000
   106de:	4721                	li	a4,8
   106e0:	40e7a6af          	amoor.w	a3,a4,(a5)
			"amoor.w %0, %2, %1\n"
			: "=r" (r), "+A" (*tx)
			: "r" (c));
	} while (r < 0);
   106e4:	02069613          	slli	a2,a3,0x20
   106e8:	fe064ce3          	bltz	a2,106e0 <main+0x58c>
			kputc(spinner[SPIN_INDEX(i)]);
   106ec:	406b5793          	srai	a5,s6,0x6
   106f0:	0037f713          	andi	a4,a5,3
   106f4:	00002797          	auipc	a5,0x2
   106f8:	8bc78793          	addi	a5,a5,-1860 # 11fb0 <spinner>
   106fc:	97ba                	add	a5,a5,a4
   106fe:	0007c703          	lbu	a4,0(a5)
		__asm__ __volatile__ (
   10702:	640007b7          	lui	a5,0x64000
   10706:	40e7a6af          	amoor.w	a3,a4,(a5)
	} while (r < 0);
   1070a:	02069613          	slli	a2,a3,0x20
   1070e:	fe064ce3          	bltz	a2,10706 <main+0x5b2>
   10712:	bf91                	j	10666 <main+0x512>

0000000000010714 <kputs>:
#include "kprintf.h"

static inline void _kputs(const char *s)
{
	char c;
	for (; (c = *s) != '\0'; s++)
   10714:	00054703          	lbu	a4,0(a0)
   10718:	cf09                	beqz	a4,10732 <kputs+0x1e>
		__asm__ __volatile__ (
   1071a:	640007b7          	lui	a5,0x64000
   1071e:	40e7a6af          	amoor.w	a3,a4,(a5)
	} while (r < 0);
   10722:	02069613          	slli	a2,a3,0x20
   10726:	fe064ce3          	bltz	a2,1071e <kputs+0xa>
   1072a:	0505                	addi	a0,a0,1
   1072c:	00054703          	lbu	a4,0(a0)
   10730:	f77d                	bnez	a4,1071e <kputs+0xa>
		__asm__ __volatile__ (
   10732:	640007b7          	lui	a5,0x64000
   10736:	4735                	li	a4,13
   10738:	40e7a6af          	amoor.w	a3,a4,(a5)
	} while (r < 0);
   1073c:	02069613          	slli	a2,a3,0x20
   10740:	fe064ce3          	bltz	a2,10738 <kputs+0x24>
		__asm__ __volatile__ (
   10744:	640007b7          	lui	a5,0x64000
   10748:	4729                	li	a4,10
   1074a:	40e7a6af          	amoor.w	a3,a4,(a5)
	} while (r < 0);
   1074e:	02069613          	slli	a2,a3,0x20
   10752:	fe064ce3          	bltz	a2,1074a <kputs+0x36>
void kputs(const char *s)
{
	_kputs(s);
	kputc('\r');
	kputc('\n');
}
   10756:	8082                	ret

0000000000010758 <kprintf>:

void kprintf(const char *fmt, ...)
{
   10758:	715d                	addi	sp,sp,-80
   1075a:	fc3e                	sd	a5,56(sp)
	va_list vl;
	bool is_format, is_long, is_char;
	char c;

	va_start(vl, fmt);
   1075c:	083c                	addi	a5,sp,24
{
   1075e:	ec2e                	sd	a1,24(sp)
   10760:	f032                	sd	a2,32(sp)
   10762:	e0c2                	sd	a6,64(sp)
   10764:	e4c6                	sd	a7,72(sp)
	va_start(vl, fmt);
   10766:	e43e                	sd	a5,8(sp)
{
   10768:	f436                	sd	a3,40(sp)
   1076a:	f83a                	sd	a4,48(sp)
	is_format = false;
	is_long = false;
	is_char = false;
   1076c:	4e81                	li	t4,0
	is_long = false;
   1076e:	4581                	li	a1,0
	is_format = false;
   10770:	4601                	li	a2,0
				break;
			}
			is_format = false;
			is_long = false;
			is_char = false;
		} else if (c == '%') {
   10772:	02500313          	li	t1,37
		__asm__ __volatile__ (
   10776:	640007b7          	lui	a5,0x64000
			switch (c) {
   1077a:	48d5                	li	a7,21
   1077c:	00001817          	auipc	a6,0x1
   10780:	7dc80813          	addi	a6,a6,2012 # 11f58 <dtb+0x16a0>
					kputc(d < 10 ? '0' + d : 'a' + d - 10);
   10784:	4e25                	li	t3,9
	while ((c = *fmt++) != '\0') {
   10786:	0505                	addi	a0,a0,1
   10788:	fff54703          	lbu	a4,-1(a0)
   1078c:	c315                	beqz	a4,107b0 <kprintf+0x58>
		if (is_format) {
   1078e:	c625                	beqz	a2,107f6 <kprintf+0x9e>
			switch (c) {
   10790:	f9d7071b          	addiw	a4,a4,-99
   10794:	0ff77713          	andi	a4,a4,255
   10798:	04e8eb63          	bltu	a7,a4,107ee <kprintf+0x96>
   1079c:	070a                	slli	a4,a4,0x2
   1079e:	9742                	add	a4,a4,a6
   107a0:	4318                	lw	a4,0(a4)
   107a2:	9742                	add	a4,a4,a6
   107a4:	8702                	jr	a4
	while ((c = *fmt++) != '\0') {
   107a6:	0505                	addi	a0,a0,1
   107a8:	fff54703          	lbu	a4,-1(a0)
				is_long = true;
   107ac:	85b2                	mv	a1,a2
	while ((c = *fmt++) != '\0') {
   107ae:	f365                	bnez	a4,1078e <kprintf+0x36>
		} else {
			kputc(c);
		}
	}
	va_end(vl);
}
   107b0:	6161                	addi	sp,sp,80
   107b2:	8082                	ret
   107b4:	6722                	ld	a4,8(sp)
   107b6:	00870693          	addi	a3,a4,8
					n = va_arg(vl, unsigned long);
   107ba:	e436                	sd	a3,8(sp)
				if (is_long) {
   107bc:	c5c5                	beqz	a1,10864 <kprintf+0x10c>
					n = va_arg(vl, unsigned long);
   107be:	00073f03          	ld	t5,0(a4)
					i = (sizeof(unsigned long) << 3) - 4;
   107c2:	03c00613          	li	a2,60
					d = (n >> i) & 0xF;
   107c6:	00cf56b3          	srl	a3,t5,a2
   107ca:	8abd                	andi	a3,a3,15
   107cc:	0ff6f593          	andi	a1,a3,255
					kputc(d < 10 ? '0' + d : 'a' + d - 10);
   107d0:	05758713          	addi	a4,a1,87 # 40000057 <spinner+0x3ffee0a7>
   107d4:	00de4463          	blt	t3,a3,107dc <kprintf+0x84>
   107d8:	03058713          	addi	a4,a1,48
   107dc:	40e7a6af          	amoor.w	a3,a4,(a5)
	} while (r < 0);
   107e0:	02069593          	slli	a1,a3,0x20
   107e4:	fe05cce3          	bltz	a1,107dc <kprintf+0x84>
				for (; i >= 0; i -= 4) {
   107e8:	1671                	addi	a2,a2,-4
   107ea:	fc065ee3          	bgez	a2,107c6 <kprintf+0x6e>
			is_char = false;
   107ee:	4e81                	li	t4,0
			is_long = false;
   107f0:	4581                	li	a1,0
			is_format = false;
   107f2:	4601                	li	a2,0
   107f4:	bf49                	j	10786 <kprintf+0x2e>
		} else if (c == '%') {
   107f6:	00671463          	bne	a4,t1,107fe <kprintf+0xa6>
			is_format = true;
   107fa:	4605                	li	a2,1
   107fc:	b769                	j	10786 <kprintf+0x2e>
		__asm__ __volatile__ (
   107fe:	40e7a6af          	amoor.w	a3,a4,(a5)
	} while (r < 0);
   10802:	02069f13          	slli	t5,a3,0x20
   10806:	f80f50e3          	bgez	t5,10786 <kprintf+0x2e>
		__asm__ __volatile__ (
   1080a:	40e7a6af          	amoor.w	a3,a4,(a5)
	} while (r < 0);
   1080e:	02069f13          	slli	t5,a3,0x20
   10812:	fe0f46e3          	bltz	t5,107fe <kprintf+0xa6>
   10816:	bf85                	j	10786 <kprintf+0x2e>
				_kputs(va_arg(vl, const char *));
   10818:	6722                	ld	a4,8(sp)
   1081a:	6310                	ld	a2,0(a4)
   1081c:	0721                	addi	a4,a4,8
   1081e:	e43a                	sd	a4,8(sp)
	for (; (c = *s) != '\0'; s++)
   10820:	00064703          	lbu	a4,0(a2)
   10824:	d769                	beqz	a4,107ee <kprintf+0x96>
		__asm__ __volatile__ (
   10826:	40e7a6af          	amoor.w	a3,a4,(a5)
	} while (r < 0);
   1082a:	02069593          	slli	a1,a3,0x20
   1082e:	fe05cce3          	bltz	a1,10826 <kprintf+0xce>
   10832:	0605                	addi	a2,a2,1
   10834:	00064703          	lbu	a4,0(a2)
   10838:	f77d                	bnez	a4,10826 <kprintf+0xce>
			is_char = false;
   1083a:	4e81                	li	t4,0
			is_long = false;
   1083c:	4581                	li	a1,0
			is_format = false;
   1083e:	4601                	li	a2,0
   10840:	b799                	j	10786 <kprintf+0x2e>
				is_char = true;
   10842:	8eb2                	mv	t4,a2
   10844:	b789                	j	10786 <kprintf+0x2e>
				kputc(va_arg(vl, int));
   10846:	66a2                	ld	a3,8(sp)
   10848:	0006c703          	lbu	a4,0(a3)
   1084c:	06a1                	addi	a3,a3,8
   1084e:	e436                	sd	a3,8(sp)
		__asm__ __volatile__ (
   10850:	40e7a6af          	amoor.w	a3,a4,(a5)
	} while (r < 0);
   10854:	02069613          	slli	a2,a3,0x20
   10858:	fe064ce3          	bltz	a2,10850 <kprintf+0xf8>
			is_char = false;
   1085c:	4e81                	li	t4,0
			is_long = false;
   1085e:	4581                	li	a1,0
			is_format = false;
   10860:	4601                	li	a2,0
   10862:	b715                	j	10786 <kprintf+0x2e>
					n = va_arg(vl, unsigned int);
   10864:	00076f03          	lwu	t5,0(a4)
					i = is_char ? 4 : (sizeof(unsigned int) << 3) - 4;
   10868:	4611                	li	a2,4
   1086a:	f40e9ee3          	bnez	t4,107c6 <kprintf+0x6e>
   1086e:	4671                	li	a2,28
   10870:	bf99                	j	107c6 <kprintf+0x6e>
	...
