
sdboot.elf:     file format elf64-littleriscv
sdboot.elf
architecture: riscv:rv64, flags 0x00000112:
EXEC_P, HAS_SYMS, D_PAGED
start address 0x0000000000010000

Program Header:
    LOAD off    0x0000000000001000 vaddr 0x0000000000010000 paddr 0x0000000000010000 align 2**12
         filesz 0x00000000000003c8 memsz 0x00000000000003c8 flags r-x
    LOAD off    0x00000000000013c8 vaddr 0x00000000000103c8 paddr 0x00000000000103c8 align 2**12
         filesz 0x00000000000015e8 memsz 0x00000000000015e8 flags r--
    LOAD off    0x0000000000003000 vaddr 0x0000000080000000 paddr 0x0000000080000000 align 2**12
         filesz 0x0000000000000000 memsz 0x0000000000000000 flags rw-

Sections:
Idx Name          Size      VMA               LMA               File off  Algn
  0 .text         000003c8  0000000000010000  0000000000010000  00001000  2**1
                  CONTENTS, ALLOC, LOAD, READONLY, CODE
  1 .rodata       000015e8  00000000000103c8  00000000000103c8  000013c8  2**3
                  CONTENTS, ALLOC, LOAD, READONLY, DATA
  2 .bss          00000000  0000000080000000  0000000080000000  00003000  2**3
                  ALLOC
  3 .debug_line   0000056d  0000000000000000  0000000000000000  000029b0  2**0
                  CONTENTS, READONLY, DEBUGGING
  4 .debug_info   000008d5  0000000000000000  0000000000000000  00002f1d  2**0
                  CONTENTS, READONLY, DEBUGGING
  5 .debug_abbrev 00000371  0000000000000000  0000000000000000  000037f2  2**0
                  CONTENTS, READONLY, DEBUGGING
  6 .debug_aranges 00000090  0000000000000000  0000000000000000  00003b70  2**4
                  CONTENTS, READONLY, DEBUGGING
  7 .debug_str    000001c5  0000000000000000  0000000000000000  00003c00  2**0
                  CONTENTS, READONLY, DEBUGGING
  8 .debug_loc    00000681  0000000000000000  0000000000000000  00003dc5  2**0
                  CONTENTS, READONLY, DEBUGGING
  9 .debug_ranges 00000100  0000000000000000  0000000000000000  00004446  2**0
                  CONTENTS, READONLY, DEBUGGING
 10 .comment      00000011  0000000000000000  0000000000000000  00004546  2**0
                  CONTENTS, READONLY
 11 .debug_frame  00000090  0000000000000000  0000000000000000  00004558  2**3
                  CONTENTS, READONLY, DEBUGGING
SYMBOL TABLE:
0000000000010000 l    d  .text	0000000000000000 .text
00000000000103c8 l    d  .rodata	0000000000000000 .rodata
0000000080000000 l    d  .bss	0000000000000000 .bss
0000000000000000 l    d  .debug_line	0000000000000000 .debug_line
0000000000000000 l    d  .debug_info	0000000000000000 .debug_info
0000000000000000 l    d  .debug_abbrev	0000000000000000 .debug_abbrev
0000000000000000 l    d  .debug_aranges	0000000000000000 .debug_aranges
0000000000000000 l    d  .debug_str	0000000000000000 .debug_str
0000000000000000 l    d  .debug_loc	0000000000000000 .debug_loc
0000000000000000 l    d  .debug_ranges	0000000000000000 .debug_ranges
0000000000000000 l    d  .comment	0000000000000000 .comment
0000000000000000 l    d  .debug_frame	0000000000000000 .debug_frame
0000000000000000 l    df *ABS*	0000000000000000 /tmp/ccGsn3aH.o
00000000000103c8 l       .rodata	0000000000000000 dtb
0000000000000000 l    df *ABS*	0000000000000000 sd.c
0000000000000000 l    df *ABS*	0000000000000000 kprintf.c
0000000080000000 g       .bss	0000000000000000 _ebss
0000000080100000 g       *ABS*	0000000000000000 _sp
0000000000010000 g       .text	0000000000000000 _prog_start
0000000000010094 g     F .text	0000000000000196 main
000000000001022a g     F .text	0000000000000044 kputs
000000000001026e g     F .text	000000000000011a kprintf


Contents of section .text:
 10000 13098000 73104930 93040000 732940f1  ....s.I0....s)@.
 10010 63982403 37810800 1b01f1ff 1311c100  c.$.7...........
 10020 ef004007 b7040002 13091000 23a02401  ..@.........#.$.
 10030 93844400 37090002 1b090908 e3c624ff  ..D.7.........$.
 10040 73005010 73294034 13798900 e30a09fe  s.P.s)@4.y......
 10050 b7040002 732940f1 13192900 33099900  ....s)@...).3...
 10060 23200900 03a90400 e31e09fe 93844400  # ............D.
 10070 37090002 1b090908 e3c624ff 732540f1  7.........$.s%@.
 10080 97050000 93858534 9b041000 9394f401  .......4........
 10090 67800400 011106ec b7070064 22e826e4  g..........d".&.
 100a0 854484c7 17160000 1306466c 97150000  .D........Fl....
 100b0 9385c56c 17150000 1305456d 37040051  ...l......Em7..Q
 100c0 ef00e01a 4c78507c 17150000 1305056f  ....LxP|.......o
 100d0 ef00e019 a1473cc0 b787c900 9b873766  .....G<.......7f
 100e0 1cc81048 85451715 00001305 2570ef00  ...H.E......%p..
 100f0 00181048 81451715 00001305 256fef00  ...H.E......%o..
 10100 0017b707 a4612320 f4101c50 13971702  .....a# ...P....
 10110 63450702 10508545 17150000 1305856f  cE...P.E.......o
 10120 ef00e014 10508145 17150000 1305856e  .....P.E.......n
 10130 ef00e013 1c50858b cde7b757 09001ccc  .....P.....W....
 10140 9307803e 2320f420 9307d004 2324f420  ...># . ....#$. 
 10150 23289420 232c9420 23209422 0c501715  #(. #,. # .".P..
 10160 00001305 256eef00 8010b707 0051cc7b  ....%n.......Q.{
 10170 d07f1715 00001305 6576ef00 400f1715  ........ev..@...
 10180 00001305 257aef00 400a9305 20031715  ....%z..@... ...
 10190 00001305 a579ef00 800db717 00641307  .....y.......d..
 101a0 200398c3 8d463717 006494cf 93058704   ....F7..d......
 101b0 a9461306 f00f90c1 7c47e3cf 07fefd16  .F......|G......
 101c0 fdfa232c 07001715 00001305 a578ef00  ..#,.........x..
 101d0 c0050f10 0000e260 4264a264 01450561  .......`Bd.d.E.a
 101e0 82800c50 17150000 13054569 ef002008  ...P......Ei.. .
 101f0 85679b87 87382320 f4209307 90612324  .g...8# . ...a#$
 10200 f4208947 2328f420 232cf420 91472320  . .G#(. #,. .G# 
 10210 f422c567 9b871702 1ccc0c50 17150000  .".g.......P....
 10220 1305c568 ef00a004 89b70347 050009cf  ...h.......G....
 10230 b7070064 afa6e740 13960602 e34c06fe  ...d...@.....L..
 10240 05050347 05007df7 b7070064 3547afa6  ...G..}....d5G..
 10250 e7401396 0602e34c 06feb707 00642947  .@.....L.....d)G
 10260 afa6e740 13960602 e34c06fe 82805d71  ...@.....L....]q
 10270 3efc3c08 2eec32f0 c2e0c6e4 3ee436f4  >.<...2.....>.6.
 10280 3af8814e 81450146 13035002 b7070064  :..N.E.F..P....d
 10290 d5481718 00001308 686c254e 05050347  .H......hl%N...G
 102a0 f5ff15c3 25c61b07 d7f91377 f70f63eb  ....%......w..c.
 102b0 e8040a07 42971843 42970287 05050347  ....B..CB......G
 102c0 f5ffb285 65f36161 82802267 93068700  ....e.aa.."g....
 102d0 36e4c5c5 033f0700 1306c003 b356cf00  6....?.......V..
 102e0 bd8a93f5 f60f1387 75056344 de001387  ........u.cD....
 102f0 0503afa6 e7409395 0602e3cc 05fe7116  .....@........q.
 10300 e35e06fc 814e8145 014649bf 63146700  .^...N.E.FI.c.g.
 10310 054669b7 afa6e740 139f0602 e3500ff8  .Fi....@.....P..
 10320 afa6e740 139f0602 e3460ffe 85bf2267  ...@.....F...."g
 10330 10632107 3ae40347 060069d7 afa6e740  .c!.:..G..i....@
 10340 93950602 e3cc05fe 05060347 06007df7  ...........G..}.
 10350 814e8145 014699b7 b28e89b7 a26603c7  .N.E.F.......f..
 10360 0600a106 36e4afa6 e7401396 0602e34c  ....6....@.....L
 10370 06fe814e 81450146 15b7036f 07001146  ...N.E.F...o...F
 10380 e39e0ef4 714699bf 00000000 00000000  ....qF..........
 10390 00000000 00000000 00000000 00000000  ................
 103a0 00000000 00000000 00000000 00000000  ................
 103b0 00000000 00000000 00000000 00000000  ................
 103c0 00000000 00000000                    ........        
Contents of section .rodata:
 103c8 d00dfeed 0000139f 00000038 00001160  ...........8...`
 103d8 00000028 00000011 00000010 00000000  ...(............
 103e8 0000023f 00001128 00000000 00000000  ...?...(........
 103f8 00000000 00000000 00000001 00000000  ................
 10408 00000003 00000004 00000000 00000002  ................
 10418 00000003 00000004 0000000f 00000002  ................
 10428 00000003 00000021 0000001b 66726565  .......!....free
 10438 63686970 732c726f 636b6574 63686970  chips,rocketchip
 10448 2d756e6b 6e6f776e 2d646576 00000000  -unknown-dev....
 10458 00000003 0000001d 00000026 66726565  ...........&free
 10468 63686970 732c726f 636b6574 63686970  chips,rocketchip
 10478 2d756e6b 6e6f776e 00000000 00000001  -unknown........
 10488 616c6961 73657300 00000003 00000015  aliases.........
 10498 0000002c 2f736f63 2f736572 69616c40  ...,/soc/serial@
 104a8 36343030 30303030 00000000 00000002  64000000........
 104b8 00000001 63686f73 656e0000 00000002  ....chosen......
 104c8 00000001 63707573 00000000 00000003  ....cpus........
 104d8 00000004 00000000 00000001 00000003  ................
 104e8 00000004 0000000f 00000000 00000001  ................
 104f8 63707540 30000000 00000003 00000004  cpu@0...........
 10508 00000034 00000000 00000003 00000015  ...4............
 10518 0000001b 73696669 76652c72 6f636b65  ....sifive,rocke
 10528 74300072 69736376 00000000 00000003  t0.riscv........
 10538 00000004 00000044 00000040 00000003  .......D...@....
 10548 00000004 00000057 00000040 00000003  .......W...@....
 10558 00000004 00000064 00004000 00000003  .......d..@.....
 10568 00000004 00000071 00000001 00000003  .......q........
 10578 00000004 0000007c 00000020 00000003  .......|... ....
 10588 00000004 00000087 63707500 00000003  ........cpu.....
 10598 00000004 00000093 00000040 00000003  ...........@....
 105a8 00000004 000000a6 00000040 00000003  ...........@....
 105b8 00000004 000000b3 00004000 00000003  ..........@.....
 105c8 00000004 000000c0 00000001 00000003  ................
 105d8 00000004 000000cb 00000020 00000003  ........... ....
 105e8 0000000b 000000d6 72697363 762c7376  ........riscv,sv
 105f8 33390000 00000003 00000008 000000df  39..............
 10608 00000001 00000002 00000003 00000004  ................
 10618 000000f0 00000000 00000003 0000000b  ................
 10628 000000f4 72763634 696d6166 64630000  ....rv64imafdc..
 10638 00000003 00000005 000000fe 6f6b6179  ............okay
 10648 00000000 00000003 00000004 00000105  ................
 10658 000f4240 00000003 00000000 00000118  ..B@............
 10668 00000001 696e7465 72727570 742d636f  ....interrupt-co
 10678 6e74726f 6c6c6572 00000000 00000003  ntroller........
 10688 00000004 00000122 00000001 00000003  ......."........
 10698 0000000f 0000001b 72697363 762c6370  ........riscv,cp
 106a8 752d696e 74630000 00000003 00000000  u-intc..........
 106b8 00000133 00000003 00000004 00000148  ...3...........H
 106c8 00000003 00000002 00000002 00000001  ................
 106d8 63707540 31000000 00000003 00000004  cpu@1...........
 106e8 00000034 00000000 00000003 00000015  ...4............
 106f8 0000001b 73696669 76652c72 6f636b65  ....sifive,rocke
 10708 74300072 69736376 00000000 00000003  t0.riscv........
 10718 00000004 00000044 00000040 00000003  .......D...@....
 10728 00000004 00000057 00000040 00000003  .......W...@....
 10738 00000004 00000064 00004000 00000003  .......d..@.....
 10748 00000004 00000071 00000001 00000003  .......q........
 10758 00000004 0000007c 00000020 00000003  .......|... ....
 10768 00000004 00000087 63707500 00000003  ........cpu.....
 10778 00000004 00000093 00000040 00000003  ...........@....
 10788 00000004 000000a6 00000040 00000003  ...........@....
 10798 00000004 000000b3 00004000 00000003  ..........@.....
 107a8 00000004 000000c0 00000001 00000003  ................
 107b8 00000004 000000cb 00000020 00000003  ........... ....
 107c8 0000000b 000000d6 72697363 762c7376  ........riscv,sv
 107d8 33390000 00000003 00000008 000000df  39..............
 107e8 00000001 00000002 00000003 00000004  ................
 107f8 000000f0 00000001 00000003 0000000b  ................
 10808 000000f4 72763634 696d6166 64630000  ....rv64imafdc..
 10818 00000003 00000005 000000fe 6f6b6179  ............okay
 10828 00000000 00000003 00000004 00000105  ................
 10838 000f4240 00000003 00000000 00000118  ..B@............
 10848 00000001 696e7465 72727570 742d636f  ....interrupt-co
 10858 6e74726f 6c6c6572 00000000 00000003  ntroller........
 10868 00000004 00000122 00000001 00000003  ......."........
 10878 0000000f 0000001b 72697363 762c6370  ........riscv,cp
 10888 752d696e 74630000 00000003 00000000  u-intc..........
 10898 00000133 00000003 00000004 00000148  ...3...........H
 108a8 00000004 00000002 00000002 00000001  ................
 108b8 63707540 32000000 00000003 00000004  cpu@2...........
 108c8 00000034 00000000 00000003 00000015  ...4............
 108d8 0000001b 73696669 76652c72 6f636b65  ....sifive,rocke
 108e8 74300072 69736376 00000000 00000003  t0.riscv........
 108f8 00000004 00000044 00000040 00000003  .......D...@....
 10908 00000004 00000057 00000040 00000003  .......W...@....
 10918 00000004 00000064 00004000 00000003  .......d..@.....
 10928 00000004 00000071 00000001 00000003  .......q........
 10938 00000004 0000007c 00000020 00000003  .......|... ....
 10948 00000004 00000087 63707500 00000003  ........cpu.....
 10958 00000004 00000093 00000040 00000003  ...........@....
 10968 00000004 000000a6 00000040 00000003  ...........@....
 10978 00000004 000000b3 00004000 00000003  ..........@.....
 10988 00000004 000000c0 00000001 00000003  ................
 10998 00000004 000000cb 00000020 00000003  ........... ....
 109a8 0000000b 000000d6 72697363 762c7376  ........riscv,sv
 109b8 33390000 00000003 00000008 000000df  39..............
 109c8 00000001 00000002 00000003 00000004  ................
 109d8 000000f0 00000002 00000003 0000000b  ................
 109e8 000000f4 72763634 696d6166 64630000  ....rv64imafdc..
 109f8 00000003 00000005 000000fe 6f6b6179  ............okay
 10a08 00000000 00000003 00000004 00000105  ................
 10a18 000f4240 00000003 00000000 00000118  ..B@............
 10a28 00000001 696e7465 72727570 742d636f  ....interrupt-co
 10a38 6e74726f 6c6c6572 00000000 00000003  ntroller........
 10a48 00000004 00000122 00000001 00000003  ......."........
 10a58 0000000f 0000001b 72697363 762c6370  ........riscv,cp
 10a68 752d696e 74630000 00000003 00000000  u-intc..........
 10a78 00000133 00000003 00000004 00000148  ...3...........H
 10a88 00000005 00000002 00000002 00000001  ................
 10a98 63707540 33000000 00000003 00000004  cpu@3...........
 10aa8 00000034 00000000 00000003 00000015  ...4............
 10ab8 0000001b 73696669 76652c72 6f636b65  ....sifive,rocke
 10ac8 74300072 69736376 00000000 00000003  t0.riscv........
 10ad8 00000004 00000044 00000040 00000003  .......D...@....
 10ae8 00000004 00000057 00000040 00000003  .......W...@....
 10af8 00000004 00000064 00004000 00000003  .......d..@.....
 10b08 00000004 00000071 00000001 00000003  .......q........
 10b18 00000004 0000007c 00000020 00000003  .......|... ....
 10b28 00000004 00000087 63707500 00000003  ........cpu.....
 10b38 00000004 00000093 00000040 00000003  ...........@....
 10b48 00000004 000000a6 00000040 00000003  ...........@....
 10b58 00000004 000000b3 00004000 00000003  ..........@.....
 10b68 00000004 000000c0 00000001 00000003  ................
 10b78 00000004 000000cb 00000020 00000003  ........... ....
 10b88 0000000b 000000d6 72697363 762c7376  ........riscv,sv
 10b98 33390000 00000003 00000008 000000df  39..............
 10ba8 00000001 00000002 00000003 00000004  ................
 10bb8 000000f0 00000003 00000003 0000000b  ................
 10bc8 000000f4 72763634 696d6166 64630000  ....rv64imafdc..
 10bd8 00000003 00000005 000000fe 6f6b6179  ............okay
 10be8 00000000 00000003 00000004 00000105  ................
 10bf8 000f4240 00000003 00000000 00000118  ..B@............
 10c08 00000001 696e7465 72727570 742d636f  ....interrupt-co
 10c18 6e74726f 6c6c6572 00000000 00000003  ntroller........
 10c28 00000004 00000122 00000001 00000003  ......."........
 10c38 0000000f 0000001b 72697363 762c6370  ........riscv,cp
 10c48 752d696e 74630000 00000003 00000000  u-intc..........
 10c58 00000133 00000003 00000004 00000148  ...3...........H
 10c68 00000006 00000002 00000002 00000002  ................
 10c78 00000001 6d656d6f 72794038 30303030  ....memory@80000
 10c88 30303000 00000003 00000007 00000087  000.............
 10c98 6d656d6f 72790000 00000003 00000010  memory..........
 10ca8 000000f0 00000000 80000000 00000000  ................
 10cb8 20000000 00000003 00000004 00000148   ..............H
 10cc8 00000002 00000002 00000001 736f6300  ............soc.
 10cd8 00000003 00000004 00000000 00000002  ................
 10ce8 00000003 00000004 0000000f 00000002  ................
 10cf8 00000003 0000002c 0000001b 66726565  .......,....free
 10d08 63686970 732c726f 636b6574 63686970  chips,rocketchip
 10d18 2d756e6b 6e6f776e 2d736f63 0073696d  -unknown-soc.sim
 10d28 706c652d 62757300 00000003 00000000  ple-bus.........
 10d38 00000150 00000001 636c696e 74403230  ...P....clint@20
 10d48 30303030 30000000 00000003 0000000d  00000...........
 10d58 0000001b 72697363 762c636c 696e7430  ....riscv,clint0
 10d68 00000000 00000003 00000040 00000157  ...........@...W
 10d78 00000003 00000003 00000003 00000007  ................
 10d88 00000004 00000003 00000004 00000007  ................
 10d98 00000005 00000003 00000005 00000007  ................
 10da8 00000006 00000003 00000006 00000007  ................
 10db8 00000003 00000010 000000f0 00000000  ................
 10dc8 02000000 00000000 00010000 00000003  ................
 10dd8 00000008 0000016b 636f6e74 726f6c00  .......kcontrol.
 10de8 00000002 00000001 64656275 672d636f  ........debug-co
 10df8 6e74726f 6c6c6572 40300000 00000003  ntroller@0......
 10e08 00000021 0000001b 73696669 76652c64  ...!....sifive,d
 10e18 65627567 2d303133 00726973 63762c64  ebug-013.riscv,d
 10e28 65627567 2d303133 00000000 00000003  ebug-013........
 10e38 00000020 00000157 00000003 0000ffff  ... ...W........
 10e48 00000004 0000ffff 00000005 0000ffff  ................
 10e58 00000006 0000ffff 00000003 00000010  ................
 10e68 000000f0 00000000 00000000 00000000  ................
 10e78 00001000 00000003 00000008 0000016b  ...............k
 10e88 636f6e74 726f6c00 00000002 00000001  control.........
 10e98 6572726f 722d6465 76696365 40333030  error-device@300
 10ea8 30000000 00000003 0000000e 0000001b  0...............
 10eb8 73696669 76652c65 72726f72 30000000  sifive,error0...
 10ec8 00000003 00000010 000000f0 00000000  ................
 10ed8 00003000 00000000 00001000 00000003  ..0.............
 10ee8 00000004 00000148 00000001 00000002  .......H........
 10ef8 00000001 6770696f 40363430 30323030  ....gpio@6400200
 10f08 30000000 00000003 00000004 00000175  0..............u
 10f18 00000002 00000003 00000004 00000122  ..............."
 10f28 00000002 00000003 0000000d 0000001b  ................
 10f38 73696669 76652c67 70696f30 00000000  sifive,gpio0....
 10f48 00000003 00000000 00000181 00000003  ................
 10f58 00000000 00000133 00000003 00000004  .......3........
 10f68 00000191 00000007 00000003 00000010  ................
 10f78 000001a2 00000004 00000005 00000006  ................
 10f88 00000007 00000003 00000010 000000f0  ................
 10f98 00000000 64002000 00000000 00001000  ....d. .........
 10fa8 00000003 00000008 0000016b 636f6e74  ...........kcont
 10fb8 726f6c00 00000002 00000001 696e7465  rol.........inte
 10fc8 72727570 742d636f 6e74726f 6c6c6572  rrupt-controller
 10fd8 40633030 30303030 00000000 00000003  @c000000........
 10fe8 00000004 00000122 00000001 00000003  ......."........
 10ff8 0000000c 0000001b 72697363 762c706c  ........riscv,pl
 11008 69633000 00000003 00000000 00000133  ic0............3
 11018 00000003 00000040 00000157 00000003  .......@...W....
 11028 0000000b 00000003 00000009 00000004  ................
 11038 0000000b 00000004 00000009 00000005  ................
 11048 0000000b 00000005 00000009 00000006  ................
 11058 0000000b 00000006 00000009 00000003  ................
 11068 00000010 000000f0 00000000 0c000000  ................
 11078 00000000 04000000 00000003 00000008  ................
 11088 0000016b 636f6e74 726f6c00 00000003  ...kcontrol.....
 11098 00000004 000001ad 00000007 00000003  ................
 110a8 00000004 000001c0 00000007 00000003  ................
 110b8 00000004 00000148 00000007 00000002  .......H........
 110c8 00000001 70636940 32303030 30303030  ....pci@20000000
 110d8 30300000 00000003 00000004 00000000  00..............
 110e8 00000003 00000003 00000004 00000122  ..............."
 110f8 00000001 00000003 00000004 0000000f  ................
 11108 00000002 00000003 0000001a 0000001b  ................
 11118 786c6e78 2c617869 2d706369 652d686f  xlnx,axi-pcie-ho
 11128 73742d31 2e30302e 61000000 00000003  st-1.00.a.......
 11138 00000004 00000087 70636900 00000003  ........pci.....
 11148 00000060 000001cb 00000000 00000000  ...`............
 11158 00000000 00000001 00000008 00000001  ................
 11168 00000000 00000000 00000000 00000002  ................
 11178 00000008 00000002 00000000 00000000  ................
 11188 00000000 00000003 00000008 00000003  ................
 11198 00000000 00000000 00000000 00000004  ................
 111a8 00000008 00000004 00000003 00000010  ................
 111b8 000001d9 00000000 00000000 00000000  ................
 111c8 00000007 00000003 00000004 00000191  ................
 111d8 00000007 00000003 00000004 000001a2  ................
 111e8 00000003 00000003 0000001c 00000150  ...............P
 111f8 02000000 00000000 40000000 00000000  ........@.......
 11208 40000000 00000000 20000000 00000003  @....... .......
 11218 00000010 000000f0 00000020 00000000  ........... ....
 11228 00000000 04000000 00000003 00000008  ................
 11238 0000016b 636f6e74 726f6c00 00000001  ...kcontrol.....
 11248 696e7465 72727570 742d636f 6e74726f  interrupt-contro
 11258 6c6c6572 00000000 00000003 00000004  ller............
 11268 00000000 00000000 00000003 00000004  ................
 11278 00000122 00000001 00000003 00000000  ..."............
 11288 00000133 00000003 00000004 00000148  ...3...........H
 11298 00000008 00000002 00000002 00000001  ................
 112a8 726f6d40 31303030 30000000 00000003  rom@10000.......
 112b8 00000010 0000001b 73696669 76652c6d  ........sifive,m
 112c8 61736b72 6f6d3000 00000003 00000010  askrom0.........
 112d8 000000f0 00000000 00010000 00000000  ................
 112e8 00002000 00000003 00000004 0000016b  .. ............k
 112f8 6d656d00 00000002 00000001 73657269  mem.........seri
 11308 616c4036 34303030 30303000 00000003  al@64000000.....
 11318 00000004 000001ec 00000009 00000003  ................
 11328 0000000d 0000001b 73696669 76652c75  ........sifive,u
 11338 61727430 00000000 00000003 00000004  art0............
 11348 00000191 00000007 00000003 00000004  ................
 11358 000001a2 00000001 00000003 00000010  ................
 11368 000000f0 00000000 64000000 00000000  ........d.......
 11378 00001000 00000003 00000008 0000016b  ...............k
 11388 636f6e74 726f6c00 00000002 00000001  control.........
 11398 73706940 36343030 31303030 00000000  spi@64001000....
 113a8 00000003 00000004 00000000 00000001  ................
 113b8 00000003 00000004 0000000f 00000000  ................
 113c8 00000003 00000004 000001ec 00000009  ................
 113d8 00000003 0000000c 0000001b 73696669  ............sifi
 113e8 76652c73 70693000 00000003 00000004  ve,spi0.........
 113f8 00000191 00000007 00000003 00000004  ................
 11408 000001a2 00000002 00000003 00000010  ................
 11418 000000f0 00000000 64001000 00000000  ........d.......
 11428 00001000 00000003 00000008 0000016b  ...............k
 11438 636f6e74 726f6c00 00000001 6d6d6340  control.....mmc@
 11448 30000000 00000003 0000000d 0000001b  0...............
 11458 6d6d632d 7370692d 736c6f74 00000000  mmc-spi-slot....
 11468 00000003 00000000 000001f3 00000003  ................
 11478 00000004 000000f0 00000000 00000003  ................
 11488 00000004 000001fe 01312d00 00000003  .........1-.....
 11498 00000008 00000210 00000ce4 00000ce4  ................
 114a8 00000002 00000002 00000001 746c636c  ............tlcl
 114b8 6b000000 00000003 00000004 0000021f  k...............
 114c8 00000000 00000003 00000004 00000034  ...............4
 114d8 02faf080 00000003 00000006 0000022c  ...............,
 114e8 746c636c 6b000000 00000003 0000000c  tlclk...........
 114f8 0000001b 66697865 642d636c 6f636b00  ....fixed-clock.
 11508 00000003 00000004 00000148 00000009  ...........H....
 11518 00000002 00000002 00000002 00000009  ................
 11528 23616464 72657373 2d63656c 6c730023  #address-cells.#
 11538 73697a65 2d63656c 6c730063 6f6d7061  size-cells.compa
 11548 7469626c 65006d6f 64656c00 73657269  tible.model.seri
 11558 616c3000 636c6f63 6b2d6672 65717565  al0.clock-freque
 11568 6e637900 642d6361 6368652d 626c6f63  ncy.d-cache-bloc
 11578 6b2d7369 7a650064 2d636163 68652d73  k-size.d-cache-s
 11588 65747300 642d6361 6368652d 73697a65  ets.d-cache-size
 11598 00642d74 6c622d73 65747300 642d746c  .d-tlb-sets.d-tl
 115a8 622d7369 7a650064 65766963 655f7479  b-size.device_ty
 115b8 70650069 2d636163 68652d62 6c6f636b  pe.i-cache-block
 115c8 2d73697a 6500692d 63616368 652d7365  -size.i-cache-se
 115d8 74730069 2d636163 68652d73 697a6500  ts.i-cache-size.
 115e8 692d746c 622d7365 74730069 2d746c62  i-tlb-sets.i-tlb
 115f8 2d73697a 65006d6d 752d7479 7065006e  -size.mmu-type.n
 11608 6578742d 6c657665 6c2d6361 63686500  ext-level-cache.
 11618 72656700 72697363 762c6973 61007374  reg.riscv,isa.st
 11628 61747573 0074696d 65626173 652d6672  atus.timebase-fr
 11638 65717565 6e637900 746c622d 73706c69  equency.tlb-spli
 11648 74002369 6e746572 72757074 2d63656c  t.#interrupt-cel
 11658 6c730069 6e746572 72757074 2d636f6e  ls.interrupt-con
 11668 74726f6c 6c657200 7068616e 646c6500  troller.phandle.
 11678 72616e67 65730069 6e746572 72757074  ranges.interrupt
 11688 732d6578 74656e64 65640072 65672d6e  s-extended.reg-n
 11698 616d6573 00236770 696f2d63 656c6c73  ames.#gpio-cells
 116a8 00677069 6f2d636f 6e74726f 6c6c6572  .gpio-controller
 116b8 00696e74 65727275 70742d70 6172656e  .interrupt-paren
 116c8 7400696e 74657272 75707473 00726973  t.interrupts.ris
 116d8 63762c6d 61782d70 72696f72 69747900  cv,max-priority.
 116e8 72697363 762c6e64 65760069 6e746572  riscv,ndev.inter
 116f8 72757074 2d6d6170 00696e74 65727275  rupt-map.interru
 11708 70742d6d 61702d6d 61736b00 636c6f63  pt-map-mask.cloc
 11718 6b730064 69736162 6c652d77 70007370  ks.disable-wp.sp
 11728 692d6d61 782d6672 65717565 6e637900  i-max-frequency.
 11738 766f6c74 6167652d 72616e67 65730023  voltage-ranges.#
 11748 636c6f63 6b2d6365 6c6c7300 636c6f63  clock-cells.cloc
 11758 6b2d6f75 74707574 2d6e616d 65730000  k-output-names..
 11768 31373a31 383a3231 00000000 00000000  17:18:21........
 11778 46656220 20372032 30323500 00000000  Feb  7 2025.....
 11788 496e666f 3a206265 67696e20 21204020  Info: begin ! @ 
 11798 636f6d70 696c6572 20646174 653a2025  compiler date: %
 117a8 732c2074 696d653a 2025730d 0a000000  s, time: %s.....
 117b8 496e666f 3a206368 65636b20 74785f64  Info: check tx_d
 117c8 66782076 616c7565 2025782c 2072785f  fx value %x, rx_
 117d8 64667820 76616c75 65202578 0d0a0000  dfx value %x....
 117e8 496e666f 3a206366 6720706c 6c207061  Info: cfg pll pa
 117f8 72616d65 74657220 30782578 202d2030  rameter 0x%x - 0
 11808 7825780d 0a000000 496e666f 3a207465  x%x.....Info: te
 11818 73742070 6c6c2073 74617465 20696e64  st pll state ind
 11828 65783a20 30782578 202d2030 7825780d  ex: 0x%x - 0x%x.
 11838 0a000000 00000000 496e666f 3a20646f  ........Info: do
 11848 6e6f7420 6e656564 20737769 74636820  not need switch 
 11858 776f726b 20636c6b 20746f20 706c6c20  work clk to pll 
 11868 6f757470 75743a20 30782578 00000000  output: 0x%x....
 11878 496e666f 3a206265 67696e20 73776974  Info: begin swit
 11888 63682077 6f726b20 636c6b20 746f2070  ch work clk to p
 11898 6c6c206f 75747075 743a2030 78257800  ll output: 0x%x.
 118a8 496e666f 3a20656e 64207377 69746368  Info: end switch
 118b8 20776f72 6b20636c 6b20746f 20706c6c   work clk to pll
 118c8 206f7574 7075743a 20307825 78000000   output: 0x%x...
 118d8 496e666f 3a206166 74657220 63666720  Info: after cfg 
 118e8 6d696720 74616b65 6f766572 2c206368  mig takeover, ch
 118f8 65636b20 74785f64 66782076 616c7565  eck tx_dfx value
 11908 2025782c 2072785f 64667820 76616c75   %x, rx_dfx valu
 11918 65202578 0d0a0000 494e4954 0a000000  e %x....INIT....
 11928 496e666f 3a206366 67205350 495f5245  Info: cfg SPI_RE
 11938 475f5343 4b444956 2076616c 75652025  G_SCKDIV value %
 11948 780d0a00 00000000 424f4f54 0a000000  x.......BOOT....
 11958 04eaffff ace9ffff ace9ffff ace9ffff  ................
 11968 ace9ffff 00eaffff ace9ffff ace9ffff  ................
 11978 ace9ffff 64e9ffff ace9ffff ace9ffff  ....d...........
 11988 ace9ffff ace9ffff ace9ffff ace9ffff  ................
 11998 d6e9ffff ace9ffff ace9ffff ace9ffff  ................
 119a8 ace9ffff 72e9ffff                    ....r...        
Contents of section .debug_line:
 0000 61000000 02001d00 00000101 fb0e0d00  a...............
 0010 01010101 00000001 00000100 68656164  ............head
 0020 2e530000 00000000 09020000 01000000  .S..............
 0030 00000309 01030109 14000103 01090c00  ................
 0040 01030109 04000103 01095800 01030109  ..........X.....
 0050 04000103 01090800 01030109 08000109  ................
 0060 04000001 01060200 000200d5 00000001  ................
 0070 01fb0e0d 00010101 01000000 01000001  ................
 0080 2f6d6e74 2f652f57 6f726b2f 696e7374  /mnt/e/Work/inst
 0090 616c6c2f 72697363 762f746f 6f6c6368  all/riscv/toolch
 00a0 61696e2f 72697363 7636342d 756e6b6e  ain/riscv64-unkn
 00b0 6f776e2d 656c662f 696e636c 7564652f  own-elf/include/
 00c0 6d616368 696e6500 2f6d6e74 2f652f57  machine./mnt/e/W
 00d0 6f726b2f 696e7374 616c6c2f 72697363  ork/install/risc
 00e0 762f746f 6f6c6368 61696e2f 72697363  v/toolchain/risc
 00f0 7636342d 756e6b6e 6f776e2d 656c662f  v64-unknown-elf/
 0100 696e636c 7564652f 73797300 0073642e  include/sys..sd.
 0110 63000000 005f6465 6661756c 745f7479  c...._default_ty
 0120 7065732e 68000100 005f7374 64696e74  pes.h...._stdint
 0130 2e680002 00006b70 72696e74 662e6800  .h....kprintf.h.
 0140 00000000 00090294 00010000 00000003  ................
 0150 df010103 03090400 01037d09 04000103  ..........}.....
 0160 03090400 01030609 04000103 01091800  ................
 0170 01037f09 04000103 01090400 01030209  ................
 0180 10000103 03090400 01030409 0a000103  ................
 0190 04092000 01030509 08000103 10090a00  .. .............
 01a0 01030309 20000103 11090600 01030309  .... ...........
 01b0 06000103 01090800 01030109 08000103  ................
 01c0 01090400 01030109 04000103 02090400  ................
 01d0 01030909 0e000103 02091400 0103a37e  ...............~
 01e0 090c0001 03010910 00010302 090a0001  ................
 01f0 03410902 0001033f 09040001 03410902  .A.....?.....A..
 0200 0001033f 09040001 03410902 00010303  ...?.....A......
 0210 09060001 03020902 0001033c 09060001  ...........<....
 0220 03050902 000103ea 01090400 01030209  ................
 0230 0c000103 02090400 01034109 0c000103  ..........A.....
 0240 04090e00 01030109 0a000103 01090800  ................
 0250 01030109 06000103 01090400 01030309  ................
 0260 06000103 01090800 01091000 000101fa  ................
 0270 02000002 00340100 000101fb 0e0d0001  .....4..........
 0280 01010100 00000100 00012f6d 6e742f65  ........../mnt/e
 0290 2f576f72 6b2f696e 7374616c 6c2f7269  /Work/install/ri
 02a0 7363762f 746f6f6c 63686169 6e2f6c69  scv/toolchain/li
 02b0 622f6763 632f7269 73637636 342d756e  b/gcc/riscv64-un
 02c0 6b6e6f77 6e2d656c 662f372e 322e302f  known-elf/7.2.0/
 02d0 696e636c 75646500 2f6d6e74 2f652f57  include./mnt/e/W
 02e0 6f726b2f 696e7374 616c6c2f 72697363  ork/install/risc
 02f0 762f746f 6f6c6368 61696e2f 72697363  v/toolchain/risc
 0300 7636342d 756e6b6e 6f776e2d 656c662f  v64-unknown-elf/
 0310 696e636c 7564652f 6d616368 696e6500  include/machine.
 0320 2f6d6e74 2f652f57 6f726b2f 696e7374  /mnt/e/Work/inst
 0330 616c6c2f 72697363 762f746f 6f6c6368  all/riscv/toolch
 0340 61696e2f 72697363 7636342d 756e6b6e  ain/riscv64-unkn
 0350 6f776e2d 656c662f 696e636c 7564652f  own-elf/include/
 0360 73797300 006b7072 696e7466 2e630000  sys..kprintf.c..
 0370 00006b70 72696e74 662e6800 00000073  ..kprintf.h....s
 0380 74646172 672e6800 0100005f 64656661  tdarg.h...._defa
 0390 756c745f 74797065 732e6800 0200005f  ult_types.h...._
 03a0 73746469 6e742e68 00030000 00000902  stdint.h........
 03b0 2a020100 00000000 030f0103 7b090000  *...........{...
 03c0 01040203 11090600 01030409 08000104  ................
 03d0 01036b09 08000104 02031109 08000103  ..k.............
 03e0 04090a00 01037c09 08000103 04090a00  ......|.........
 03f0 01040103 74090800 01030309 02000103  ....t...........
 0400 00090200 01030509 02000103 7b090200  ............{...
 0410 01030509 08000103 7b090200 01030809  ........{.......
 0420 04000103 7f090200 01037f09 02000103  ................
 0430 27090200 01040203 58090400 01040103  '.......X.......
 0440 06090400 01031409 0a000103 6a090200  ............j...
 0450 01030109 08000103 01090200 01037e09  ..............~.
 0460 16000103 04090600 01037c09 02000103  ..........|.....
 0470 2b090200 01036209 0a000103 7f090200  +.....b.........
 0480 01030109 02000103 01090400 01030709  ................
 0490 04000103 01090a00 01000204 01060300  ................
 04a0 09080001 04020603 66090400 01030409  ........f.......
 04b0 04000104 01000204 04031309 08000103  ................
 04c0 10090600 01037f09 02000103 7f090200  ................
 04d0 01030309 04000103 01090400 01040203  ................
 04e0 57090400 01030409 04000103 7c090800  W...........|...
 04f0 01030409 04000104 01031b09 0a000103  ................
 0500 50090800 01040203 11090600 01030409  P...............
 0510 04000104 01036b09 08000103 38090800  ......k.....8...
 0520 01037f09 02000103 7f090200 01036609  ..............f.
 0530 04000103 17090400 01040203 5e090a00  ............^...
 0540 01030409 04000104 01032309 08000103  ..........#.....
 0550 7f090200 01037f09 02000103 6f090400  ............o...
 0560 01030109 04000109 0a000001 01        .............   
Contents of section .debug_info:
 0000 2a000000 02000000 00000801 00000000  *...............
 0010 00000100 00000000 94000100 00000000  ................
 0020 00000000 07000000 2d000000 01806404  ........-.....d.
 0030 00000400 14000000 08017d00 00000c06  ..........}.....
 0040 01000007 00000040 00000000 00000000  .......@........
 0050 00000065 00000002 01067100 00000341  ...e......q....A
 0060 00000002 2b3b0000 00020108 6f000000  ....+;......o...
 0070 02020538 01000002 0207d400 0000034b  ...8...........K
 0080 00000002 4d5b0000 00040405 696e7400  ....M[......int.
 0090 030b0100 00024f6d 00000002 0407f900  ......Om........
 00a0 00000208 05520100 00034201 00000269  .....R....B....i
 00b0 86000000 020807f4 00000003 43000000  ............C...
 00c0 03183000 0000034d 00000003 2c500000  ..0....M....,P..
 00d0 00030d01 00000330 62000000 05a30000  .......0b.......
 00e0 00034401 0000033c 7b000000 064d0100  ..D....<{....M..
 00f0 000413d3 00000000 00006407 08ae0000  ..........d.....
 0100 0008cd00 0000095b 01000004 14e90000  .......[........
 0110 000708ee 00000008 e3000000 02010878  ...............x
 0120 00000008 ee000000 0a737069 000115d3  .........spi....
 0130 00000000 1000640b f5000000 19010000  ......d.........
 0140 0c860000 00030008 09010000 0d390000  .............9..
 0150 0001af19 01000004 2d2f7c5c 0e200100  ........-/|\. ..
 0160 0001df5b 00000094 00010000 00000096  ...[............
 0170 01000000 00000001 9cf60300 00061601  ................
 0180 000001e1 b3000000 00000051 0fe70000  ...........Q....
 0190 0001e2b3 00000000 00000010 e2000100  ................
 01a0 00000000 20000000 00000000 d4010000  .... ...........
 01b0 11690001 f25b0000 00540000 0012f200  .i...[...T......
 01c0 01000000 00005104 0000b301 00001301  ......Q.........
 01d0 5a0903e8 17010000 00000013 015b0131  Z............[.1
 01e0 00140201 01000000 00005104 00001301  ..........Q.....
 01f0 5a0903e8 17010000 00000013 015b0130  Z............[.0
 0200 00001014 01010000 00000020 00000000  ........... ....
 0210 0000003c 02000015 6900010b 015b0000  ...<....i....[..
 0220 00a10000 00122401 01000000 00005104  ......$.......Q.
 0230 00001b02 00001301 5a090310 18010000  ........Z.......
 0240 00000013 015b0131 00143401 01000000  .....[.1..4.....
 0250 00005104 00001301 5a090310 18010000  ..Q.....Z.......
 0260 00000013 015b0130 000016f6 0300008a  .....[.0........
 0270 01010000 0000003c 00000000 00000001  .......<........
 0280 4101e702 00001702 04000018 8a010100  A...............
 0290 00000000 3c000000 00000000 190d0400  ....<...........
 02a0 00030100 00191604 00006201 00001a22  ..........b...."
 02b0 040000a6 01010000 00000000 00000001  ................
 02c0 5ec40200 001b2e04 0000a601 01000000  ^...............
 02d0 00000000 00000127 1c3e0400 00870100  .......'.>......
 02e0 001d0000 00001947 040000ac 01000000  .......G........
 02f0 0000149a 01010000 00000051 04000013  ...........Q....
 0300 015a0903 28190100 00000000 13015b02  .Z..(.........[.
 0310 08320000 0012c400 01000000 00005104  .2............Q.
 0320 00002003 00001301 5a090388 17010000  .. .....Z.......
 0330 00000013 015b0903 78170100 00000000  .....[..x.......
 0340 13015c09 03681701 00000000 000012d4  ..\..h..........
 0350 00010000 00000051 0400003f 03000013  .......Q...?....
 0360 015a0903 b8170100 00000000 00126a01  .Z............j.
 0370 01000000 00005104 00005e03 00001301  ......Q...^.....
 0380 5a090340 18010000 00000000 127e0101  Z..@.........~..
 0390 00000000 00510400 007d0300 0013015a  .....Q...}.....Z
 03a0 0903d818 01000000 00000012 8a010100  ................
 03b0 00000000 5c040000 9c030000 13015a09  ....\.........Z.
 03c0 03201901 00000000 000012d2 01010000  . ..............
 03d0 0000005c 040000bb 03000013 015a0903  ...\.........Z..
 03e0 50190100 00000000 0012f001 01000000  P...............
 03f0 00005104 0000da03 00001301 5a090378  ..Q.........Z..x
 0400 18010000 00000000 14280201 00000000  .........(......
 0410 00510400 0013015a 0903a818 01000000  .Q.....Z........
 0420 00000000 1e250100 00015001 22040000  .....%....P."...
 0430 1feb0000 000150b3 00000020 69000152  ......P.... i..R
 0440 74000000 09300100 000153b3 00000000  t....0....S.....
 0450 21550000 0001248d 00000003 22660000  !U....$....."f..
 0460 0001178d 00000003 51040000 23640001  ........Q...#d..
 0470 178d0000 00207200 01199800 00000024  ..... r........$
 0480 5e000000 5e000000 042824b3 010000b3  ^...^....($.....
 0490 01000004 27003b04 00000400 ed010000  ....'.;.........
 04a0 08017d00 00000c87 01000007 0000002a  ..}............*
 04b0 02010000 0000005e 01000000 0000006f  .......^.......o
 04c0 02000002 99010000 03283800 00000308  .........(8.....
 04d0 75010000 02a00100 0003632d 00000004  u.........c-....
 04e0 01067100 00000401 086f0000 00040205  ..q......o......
 04f0 38010000 040207d4 00000002 4b000000  8...........K...
 0500 044d7000 00000504 05696e74 00020b01  .Mp......int....
 0510 0000044f 82000000 040407f9 00000004  ...O............
 0520 08055201 00000408 07f40000 00024d00  ..R...........M.
 0530 0000052c 65000000 020d0100 00053077  ...,e.........0w
 0540 00000006 a2000000 074d0100 000213c7  .........M......
 0550 00000000 00006408 08ad0000 0009c100  ......d.........
 0560 00000a5b 01000002 14dd0000 000808e2  ...[............
 0570 00000009 d7000000 04010878 00000009  ...........x....
 0580 e2000000 0b5e0000 0001166e 02010000  .....^.....n....
 0590 0000001a 01000000 00000001 9ccb0200  ................
 05a0 000c666d 74000116 cb020000 cf010000  ..fmt...........
 05b0 0d0e766c 0001183e 00000003 91b87f0f  ..vl...>........
 05c0 a8010000 0119d102 00002d02 00000f91  ..........-.....
 05d0 01000001 19d10200 00b00200 000f6d01  ..............m.
 05e0 00000119 d1020000 20030000 10630001  ........ ....c..
 05f0 1ae20000 00a30300 00119000 0000d701  ................
 0600 0000106e 00012a90 000000ec 03000010  ...n..*.........
 0610 6900012b 89000000 22040000 12d00000  i..+....".......
 0620 00106400 01348900 00006d04 00001319  ..d..4....m.....
 0630 040000f2 02010000 0000000c 00000000  ................
 0640 00000001 36142104 000015f2 02010000  ....6.!.........
 0650 0000000c 00000000 00000016 2a040000  ............*...
 0660 17340400 00c40400 00000000 00181904  .4..............
 0670 00008c02 01000000 00006000 00000147  ..........`....G
 0680 08020000 14210400 00126000 0000162a  .....!....`....*
 0690 04000017 34040000 e7040000 000019fa  ....4...........
 06a0 03000036 03010000 0000001a 00000000  ...6............
 06b0 00000001 3b850200 001a0604 00000a05  ....;...........
 06c0 00001536 03010000 0000001a 00000000  ...6............
 06d0 00000017 0f040000 2d050000 13190400  ........-.......
 06e0 003c0301 00000000 000c0000 00000000  .<..............
 06f0 00010c14 21040000 153c0301 00000000  ....!....<......
 0700 000c0000 00000000 00162a04 00001734  ..........*....4
 0710 04000050 05000000 00000013 19040000  ...P............
 0720 66030100 00000000 0c000000 00000000  f...............
 0730 013e1a21 04000073 05000015 66030100  .>.!...s....f...
 0740 00000000 0c000000 00000000 172a0400  .............*..
 0750 00960500 00173404 0000bc05 00000000  ......4.........
 0760 000808e9 00000004 0102bf01 00000bb3  ................
 0770 01000001 0f2a0201 00000000 00440000  .....*.......D..
 0780 00000000 00019cfa 0300000c 7300010f  ............s...
 0790 cb020000 df050000 19fa0300 002a0201  .............*..
 07a0 00000000 001e0000 00000000 0001117d  ...............}
 07b0 0300001b 06040000 015a152a 02010000  .........Z.*....
 07c0 0000001e 00000000 00000017 0f040000  ................
 07d0 18060000 13190400 00300201 00000000  .........0......
 07e0 00100000 00000000 00010c14 21040000  ............!...
 07f0 15300201 00000000 00100000 00000000  .0..............
 0800 00162a04 00001734 0400003b 06000000  ..*....4...;....
 0810 00000019 19040000 48020100 00000000  ........H.......
 0820 12000000 00000000 0112be03 00001421  ...............!
 0830 04000015 48020100 00000000 12000000  ....H...........
 0840 00000000 162a0400 00173404 00005e06  .....*....4...^.
 0850 00000000 13190400 005a0201 00000000  .........Z......
 0860 00120000 00000000 00011314 21040000  ............!...
 0870 155a0201 00000000 00120000 00000000  .Z..............
 0880 00162a04 00001c34 04000001 5d000000  ..*....4....]...
 0890 1db20100 00010803 19040000 1e730001  .............s..
 08a0 08cb0200 001f6300 010ae200 00000020  ......c........ 
 08b0 b9010000 0216031e 63000216 e2000000  ........c.......
 08c0 1f747800 0218c100 00001f72 00021a97  .tx........r....
 08d0 00000000 00                          .....           
Contents of section .debug_abbrev:
 0000 01110010 06110112 01030e1b 0e250e13  .............%..
 0010 05000000 01110125 0e130b03 0e1b0e55  .......%.......U
 0020 17110110 17000002 24000b0b 3e0b030e  ........$...>...
 0030 00000316 00030e3a 0b3b0b49 13000004  .......:.;.I....
 0040 24000b0b 3e0b0308 00000535 00491300  $...>......5.I..
 0050 00063400 030e3a0b 3b0b4913 1c060000  ..4...:.;.I.....
 0060 070f000b 0b491300 00082600 49130000  .....I....&.I...
 0070 09340003 0e3a0b3b 0b491300 000a3400  .4...:.;.I....4.
 0080 03083a0b 3b0b4913 1c060000 0b010149  ..:.;.I........I
 0090 13011300 000c2100 49132f0b 00000d34  ......!.I./....4
 00a0 00030e3a 0b3b0b49 131c0a00 000e2e01  ...:.;.I........
 00b0 3f19030e 3a0b3b0b 27194913 11011207  ?...:.;.'.I.....
 00c0 40189742 19011300 000f3400 030e3a0b  @..B......4...:.
 00d0 3b0b4913 02170000 100b0111 01120701  ;.I.............
 00e0 13000011 34000308 3a0b3b0b 49130217  ....4...:.;.I...
 00f0 00001289 82010111 01311301 13000013  .........1......
 0100 8a820100 02189142 18000014 89820101  .......B........
 0110 11013113 00001534 0003083a 0b3b0549  ..1....4...:.;.I
 0120 13021700 00161d01 31131101 1207580b  ........1.....X.
 0130 59050113 00001705 00311300 00180b01  Y........1......
 0140 11011207 00001934 00311302 1700001a  .......4.1......
 0150 1d013113 52015517 580b590b 01130000  ..1.R.U.X.Y.....
 0160 1b1d0131 13520155 17580b59 0b00001c  ...1.R.U.X.Y....
 0170 05003113 02170000 1d0b0155 1700001e  ..1........U....
 0180 2e01030e 3a0b3b0b 2719200b 01130000  ....:.;.'. .....
 0190 1f050003 0e3a0b3b 0b491300 00203400  .....:.;.I... 4.
 01a0 03083a0b 3b0b4913 0000212e 00030e3a  ..:.;.I...!....:
 01b0 0b3b0b27 19491320 0b000022 2e01030e  .;.'.I. ..."....
 01c0 3a0b3b0b 27194913 200b0113 00002305  :.;.'.I. .....#.
 01d0 0003083a 0b3b0b49 13000024 2e003f19  ...:.;.I...$..?.
 01e0 3c196e0e 030e3a0b 3b0b0000 00011101  <.n...:.;.......
 01f0 250e130b 030e1b0e 11011207 10170000  %...............
 0200 02160003 0e3a0b3b 0b491300 00030f00  .....:.;.I......
 0210 0b0b030e 00000424 000b0b3e 0b030e00  .......$...>....
 0220 00052400 0b0b3e0b 03080000 06350049  ..$...>......5.I
 0230 13000007 3400030e 3a0b3b0b 49131c06  ....4...:.;.I...
 0240 0000080f 000b0b49 13000009 26004913  .......I....&.I.
 0250 00000a34 00030e3a 0b3b0b49 1300000b  ...4...:.;.I....
 0260 2e013f19 030e3a0b 3b0b2719 11011207  ..?...:.;.'.....
 0270 40189742 19011300 000c0500 03083a0b  @..B..........:.
 0280 3b0b4913 02170000 0d180000 000e3400  ;.I...........4.
 0290 03083a0b 3b0b4913 02180000 0f340003  ..:.;.I......4..
 02a0 0e3a0b3b 0b491302 17000010 34000308  .:.;.I......4...
 02b0 3a0b3b0b 49130217 0000110b 01551701  :.;.I........U..
 02c0 13000012 0b015517 0000131d 01311311  ......U......1..
 02d0 01120758 0b590b00 00140500 31130000  ...X.Y......1...
 02e0 150b0111 01120700 00163400 31130000  ..........4.1...
 02f0 17340031 13021700 00181d01 31135201  .4.1........1.R.
 0300 5517580b 590b0113 0000191d 01311311  U.X.Y........1..
 0310 01120758 0b590b01 1300001a 05003113  ...X.Y........1.
 0320 02170000 1b050031 13021800 001c3400  .......1......4.
 0330 31130218 00001d2e 01030e3a 0b3b0b27  1..........:.;.'
 0340 19200b01 1300001e 05000308 3a0b3b0b  . ..........:.;.
 0350 49130000 1f340003 083a0b3b 0b491300  I....4...:.;.I..
 0360 00202e01 030e3a0b 3b0b2719 200b0000  . ....:.;.'. ...
 0370 00                                   .               
Contents of section .debug_aranges:
 0000 2c000000 02000000 00000800 00000000  ,...............
 0010 00000100 00000000 94000000 00000000  ................
 0020 00000000 00000000 00000000 00000000  ................
 0030 2c000000 02002e00 00000800 00000000  ,...............
 0040 94000100 00000000 96010000 00000000  ................
 0050 00000000 00000000 00000000 00000000  ................
 0060 2c000000 02009604 00000800 00000000  ,...............
 0070 2a020100 00000000 5e010000 00000000  *.......^.......
 0080 00000000 00000000 00000000 00000000  ................
Contents of section .debug_str:
 0000 68656164 2e53002f 6d6e742f 652f576f  head.S./mnt/e/Wo
 0010 726b2f73 766e2f72 69736376 2f747275  rk/svn/riscv/tru
 0020 6e6b2f73 772f7364 626f6f74 00474e55  nk/sw/sdboot.GNU
 0030 20415320 322e3239 00737069 6e6e6572   AS 2.29.spinner
 0040 005f5f75 696e7438 5f74005f 5f696e74  .__uint8_t.__int
 0050 33325f74 0073645f 64756d6d 79006b70  32_t.sd_dummy.kp
 0060 72696e74 66007370 695f7866 65720075  rintf.spi_xfer.u
 0070 6e736967 6e656420 63686172 00474e55  nsigned char.GNU
 0080 20433131 20372e32 2e30202d 6d617263   C11 7.2.0 -marc
 0090 683d7276 3634696d 6163202d 6d636d6f  h=rv64imac -mcmo
 00a0 64656c3d 6d656461 6e79202d 6d616269  del=medany -mabi
 00b0 3d6c7036 34202d67 202d4f32 202d7374  =lp64 -g -O2 -st
 00c0 643d676e 75313120 2d666e6f 2d636f6d  d=gnu11 -fno-com
 00d0 6d6f6e00 73686f72 7420756e 7369676e  mon.short unsign
 00e0 65642069 6e740075 73655f63 6c6b5f66  ed int.use_clk_f
 00f0 72657100 6c6f6e67 20756e73 69676e65  req.long unsigne
 0100 6420696e 74007364 2e63005f 5f75696e  d int.sd.c.__uin
 0110 7433325f 74006261 73655f61 64647200  t32_t.base_addr.
 0120 6d61696e 0073645f 706f7765 726f6e00  main.sd_poweron.
 0130 73636c6b 64697600 73686f72 7420696e  sclkdiv.short in
 0140 74005f5f 75696e74 36345f74 00756172  t.__uint64_t.uar
 0150 74006c6f 6e672069 6e740053 48555444  t.long int.SHUTD
 0160 4f574e5f 464c4147 5f535452 0069735f  OWN_FLAG_STR.is_
 0170 63686172 005f5f62 75696c74 696e5f76  char.__builtin_v
 0180 615f6c69 7374006b 7072696e 74662e63  a_list.kprintf.c
 0190 0069735f 6c6f6e67 005f5f67 6e75635f  .is_long.__gnuc_
 01a0 76615f6c 69737400 69735f66 6f726d61  va_list.is_forma
 01b0 74005f6b 70757473 006b7075 7463005f  t._kputs.kputc._
 01c0 426f6f6c 00                          Bool.           
Contents of section .debug_loc:
 0000 0a010100 00000000 6a010100 00000000  ........j.......
 0010 04000a40 9c9fe201 01000000 00002802  ...@..........(.
 0020 01000000 00000400 0a409c9f 28020100  .........@..(...
 0030 00000000 2a020100 00000000 06000c40  ....*..........@
 0040 0d03009f 00000000 00000000 00000000  ................
 0050 00000000 e2000100 00000000 f2000100  ................
 0060 00000000 0200319f f2000100 00000000  ......1.........
 0070 02010100 00000000 0200309f 02010100  ..........0.....
 0080 00000000 2a020100 00000000 030009ff  ....*...........
 0090 9f000000 00000000 00000000 00000000  ................
 00a0 00140101 00000000 00240101 00000000  .........$......
 00b0 00020031 9f240101 00000000 00340101  ...1.$.......4..
 00c0 00000000 00020030 9f340101 00000000  .......0.4......
 00d0 003a0101 00000000 00030009 ff9fe201  .:..............
 00e0 01000000 00002a02 01000000 00000300  ......*.........
 00f0 09ff9f00 00000000 00000000 00000000  ................
 0100 000000ac 01010000 000000b6 01010000  ................
 0110 00000002 003a9fb6 01010000 000000be  .....:..........
 0120 01010000 00000001 005dbe01 01000000  .........]......
 0130 0000c001 01000000 00000300 7d7f9fc0  ............}...
 0140 01010000 000000c6 01010000 00000001  ................
 0150 005d0000 00000000 00000000 00000000  .]..............
 0160 00008a01 01000000 0000e201 01000000  ................
 0170 00000300 08329f00 00000000 00000000  .....2..........
 0180 00000000 000000b6 01010000 000000be  ................
 0190 01010000 00000003 0009ff9f 00000000  ................
 01a0 00000000 00000000 00000000 ba010100  ................
 01b0 00000000 be010100 00000000 01005f00  .............._.
 01c0 00000000 00000000 00000000 00000044  ...............D
 01d0 00000000 00000074 00000000 00000001  .......t........
 01e0 005a7400 00000000 00009400 00000000  .Zt.............
 01f0 00000100 5a940000 00000000 009a0000  ....Z...........
 0200 00000000 0003007a 7f9f9a00 00000000  .......z........
 0210 00005e01 00000000 00000100 5a000000  ..^.........Z...
 0220 00000000 00000000 00000000 00540000  .............T..
 0230 00000000 00720000 00000000 00020030  .....r.........0
 0240 9f720000 00000000 00b20000 00000000  .r..............
 0250 0001005c e2000000 00000000 e8000000  ...\............
 0260 00000000 01005cea 00000000 00000008  ......\.........
 0270 01000000 00000001 005c2e01 00000000  .........\......
 0280 00003c01 00000000 00000100 5c500100  ..<.........\P..
 0290 00000000 00560100 00000000 0001005c  .....V.........\
 02a0 00000000 00000000 00000000 00000000  ................
 02b0 54000000 00000000 72000000 00000000  T.......r.......
 02c0 0200309f 72000000 00000000 b2000000  ..0.r...........
 02d0 00000000 01005be2 00000000 00000012  ......[.........
 02e0 01000000 00000001 005b2e01 00000000  .........[......
 02f0 00004c01 00000000 00000100 5b500100  ..L.........[P..
 0300 00000000 005e0100 00000000 0001005b  .....^.........[
 0310 00000000 00000000 00000000 00000000  ................
 0320 54000000 00000000 72000000 00000000  T.......r.......
 0330 0200309f 72000000 00000000 dc000000  ..0.r...........
 0340 00000000 01006de2 00000000 00000028  ......m........(
 0350 01000000 00000001 006d2e01 00000000  .........m......
 0360 00003001 00000000 00000100 6d320100  ..0.........m2..
 0370 00000000 004a0100 00000000 0001006d  .....J.........m
 0380 50010000 00000000 5e010000 00000000  P.......^.......
 0390 01006d00 00000000 00000000 00000000  ..m.............
 03a0 00000078 00000000 00000080 00000000  ...x............
 03b0 00000001 005e9a00 00000000 0000a000  .....^..........
 03c0 00000000 00000100 5ee20000 00000000  ........^.......
 03d0 00040100 00000000 0001005e 00000000  ...........^....
 03e0 00000000 00000000 00000000 b2000000  ................
 03f0 00000000 da000000 00000000 01006e54  ..............nT
 0400 01000000 0000005e 01000000 00000001  .......^........
 0410 006e0000 00000000 00000000 00000000  .n..............
 0420 0000ae00 00000000 0000b200 00000000  ................
 0430 00000300 083c9fb2 00000000 000000da  .....<..........
 0440 00000000 00000001 005c5c01 00000000  .........\\.....
 0450 00005e01 00000000 00000100 5c000000  ..^.........\...
 0460 00000000 00000000 00000000 00b80000  ................
 0470 00000000 00c80000 00000000 0001005d  ...............]
 0480 c8000000 00000000 d6000000 00000000  ................
 0490 08008e00 7c00253f 1a9fd600 00000000  ....|.%?........
 04a0 0000da00 00000000 00000800 8e007c04  ..............|.
 04b0 253f1a9f 00000000 00000000 00000000  %?..............
 04c0 00000000 cc000000 00000000 d4000000  ................
 04d0 00000000 01005d00 00000000 00000000  ......].........
 04e0 00000000 000000ee 00000000 00000004  ................
 04f0 01000000 00000001 005d0000 00000000  .........]......
 0500 00000000 00000000 00000801 00000000  ................
 0510 00002c01 00000000 00000100 5c000000  ..,.........\...
 0520 00000000 00000000 00000000 00100100  ................
 0530 00000000 002e0100 00000000 0001005e  ...............^
 0540 00000000 00000000 00000000 00000000  ................
 0550 16010000 00000000 1e010000 00000000  ................
 0560 01005d00 00000000 00000000 00000000  ..].............
 0570 00000038 01000000 00000050 01000000  ...8.......P....
 0580 00000001 005e0000 00000000 00000000  .....^..........
 0590 00000000 00003801 00000000 00005001  ......8.......P.
 05a0 00000000 00000400 494a249f 00000000  ........IJ$.....
 05b0 00000000 00000000 00000000 40010000  ............@...
 05c0 00000000 50010000 00000000 01005d00  ....P.........].
 05d0 00000000 00000000 00000000 00000000  ................
 05e0 00000000 0000000a 00000000 00000001  ................
 05f0 005a0a00 00000000 00004400 00000000  .Z........D.....
 0600 00000400 f3015a9f 00000000 00000000  ......Z.........
 0610 00000000 00000000 04000000 00000000  ................
 0620 24000000 00000000 01005e00 00000000  $.........^.....
 0630 00000000 00000000 0000000e 00000000  ................
 0640 00000016 00000000 00000001 005d0000  .............]..
 0650 00000000 00000000 00000000 00002800  ..............(.
 0660 00000000 00003600 00000000 00000100  ......6.........
 0670 5d000000 00000000 00000000 00000000  ]...............
 0680 00                                   .               
Contents of section .debug_ranges:
 0000 a6010100 00000000 aa010100 00000000  ................
 0010 ac010100 00000000 b0010100 00000000  ................
 0020 b2010100 00000000 c0010100 00000000  ................
 0030 00000000 00000000 00000000 00000000  ................
 0040 94000100 00000000 2a020100 00000000  ........*.......
 0050 00000000 00000000 00000000 00000000  ................
 0060 62000000 00000000 66000000 00000000  b.......f.......
 0070 ea000000 00000000 04010000 00000000  ................
 0080 00000000 00000000 00000000 00000000  ................
 0090 70000000 00000000 72000000 00000000  p.......r.......
 00a0 a6000000 00000000 da000000 00000000  ................
 00b0 50010000 00000000 5e010000 00000000  P.......^.......
 00c0 00000000 00000000 00000000 00000000  ................
 00d0 70000000 00000000 72000000 00000000  p.......r.......
 00e0 b2000000 00000000 d4000000 00000000  ................
 00f0 00000000 00000000 00000000 00000000  ................
Contents of section .comment:
 0000 4743433a 2028474e 55292037 2e322e30  GCC: (GNU) 7.2.0
 0010 00                                   .               
Contents of section .debug_frame:
 0000 0c000000 ffffffff 0100017c 010d0200  ...........|....
 0010 2c000000 00000000 94000100 00000000  ,...............
 0020 96010000 00000000 420e204a 81028804  ........B. J....
 0030 89060338 010ac142 c842c944 0e00420b  ...8...B.B.D..B.
 0040 0c000000 ffffffff 0100017c 010d0200  ...........|....
 0050 14000000 40000000 2a020100 00000000  ....@...*.......
 0060 44000000 00000000 24000000 40000000  D.......$...@...
 0070 6e020100 00000000 1a010000 00000000  n...............
 0080 420e5002 580a0e00 420b0000 00000000  B.P.X...B.......

Disassembly of section .text:

0000000000010000 <_prog_start>:

  .section .text.init
  .option norvc
  .globl _prog_start
_prog_start:
  smp_pause(s1, s2)
   10000:	00800913          	li	s2,8
   10004:	30491073          	csrw	mie,s2
   10008:	00000493          	li	s1,0
   1000c:	f1402973          	csrr	s2,mhartid
   10010:	03249863          	bne	s1,s2,10040 <_prog_start+0x40>
  li sp, (PAYLOAD_DEST + 0x7fff000)
   10014:	00088137          	lui	sp,0x88
   10018:	fff1011b          	addiw	sp,sp,-1
   1001c:	00c11113          	slli	sp,sp,0xc
  call main
   10020:	074000ef          	jal	ra,10094 <main>
  smp_resume(s1, s2)
   10024:	020004b7          	lui	s1,0x2000
   10028:	00100913          	li	s2,1
   1002c:	0124a023          	sw	s2,0(s1) # 2000000 <dtb+0x1fefc38>
   10030:	00448493          	addi	s1,s1,4
   10034:	02000937          	lui	s2,0x2000
   10038:	0809091b          	addiw	s2,s2,128
   1003c:	ff24c6e3          	blt	s1,s2,10028 <_prog_start+0x28>
   10040:	10500073          	wfi
   10044:	34402973          	csrr	s2,mip
   10048:	00897913          	andi	s2,s2,8
   1004c:	fe090ae3          	beqz	s2,10040 <_prog_start+0x40>
   10050:	020004b7          	lui	s1,0x2000
   10054:	f1402973          	csrr	s2,mhartid
   10058:	00291913          	slli	s2,s2,0x2
   1005c:	00990933          	add	s2,s2,s1
   10060:	00092023          	sw	zero,0(s2) # 2000000 <dtb+0x1fefc38>
   10064:	0004a903          	lw	s2,0(s1) # 2000000 <dtb+0x1fefc38>
   10068:	fe091ee3          	bnez	s2,10064 <_prog_start+0x64>
   1006c:	00448493          	addi	s1,s1,4
   10070:	02000937          	lui	s2,0x2000
   10074:	0809091b          	addiw	s2,s2,128
   10078:	ff24c6e3          	blt	s1,s2,10064 <_prog_start+0x64>
  csrr a0, mhartid
   1007c:	f1402573          	csrr	a0,mhartid
  la a1, dtb
   10080:	00000597          	auipc	a1,0x0
   10084:	34858593          	addi	a1,a1,840 # 103c8 <dtb>
  li s1, PAYLOAD_DEST
   10088:	0010049b          	addiw	s1,zero,1
   1008c:	01f49493          	slli	s1,s1,0x1f
  jr s1
   10090:	00048067          	jr	s1

0000000000010094 <main>:
	kputs("\b ");
	return rc;
}

int main(void)
{
   10094:	1101                	addi	sp,sp,-32
   10096:	ec06                	sd	ra,24(sp)
	uint64_t base_addr;
	uint64_t use_clk_freq;
	REG32(uart, UART_REG_TXCTRL) = UART_TXEN;
   10098:	640007b7          	lui	a5,0x64000
{
   1009c:	e822                	sd	s0,16(sp)
   1009e:	e426                	sd	s1,8(sp)
	REG32(uart, UART_REG_TXCTRL) = UART_TXEN;
   100a0:	4485                	li	s1,1
   100a2:	c784                	sw	s1,8(a5)
    // REG32(uart, UART_REG_DIV)= 1;
	// avoid uart int
	// REG32(uart, UART_REG_RXCTRL) = UART_RXEN;
	base_addr = 0x51000000UL;
	
    dprintf("Info: begin ! @ compiler date: %s, time: %s\r\n", __DATE__,__TIME__);
   100a4:	00001617          	auipc	a2,0x1
   100a8:	6c460613          	addi	a2,a2,1732 # 11768 <dtb+0x13a0>
   100ac:	00001597          	auipc	a1,0x1
   100b0:	6cc58593          	addi	a1,a1,1740 # 11778 <dtb+0x13b0>
   100b4:	00001517          	auipc	a0,0x1
   100b8:	6d450513          	addi	a0,a0,1748 # 11788 <dtb+0x13c0>
    dprintf("Info: check tx_dfx value %x, rx_dfx value %x\r\n", _REG64(base_addr, 0xb0), _REG64(base_addr, 0xb8));
   100bc:	51000437          	lui	s0,0x51000
    dprintf("Info: begin ! @ compiler date: %s, time: %s\r\n", __DATE__,__TIME__);
   100c0:	1ae000ef          	jal	ra,1026e <kprintf>
    dprintf("Info: check tx_dfx value %x, rx_dfx value %x\r\n", _REG64(base_addr, 0xb0), _REG64(base_addr, 0xb8));
   100c4:	784c                	ld	a1,176(s0)
   100c6:	7c50                	ld	a2,184(s0)
   100c8:	00001517          	auipc	a0,0x1
   100cc:	6f050513          	addi	a0,a0,1776 # 117b8 <dtb+0x13f0>
   100d0:	19e000ef          	jal	ra,1026e <kprintf>

	_REG32(_AC(0x51000000, UL), 0x40) = 0x00000008; // cfg mig takeover release
   100d4:	47a1                	li	a5,8
   100d6:	c03c                	sw	a5,64(s0)

	// config pll clko0 500M clko1 250M clko2 100M, VCO = 2000M
	_REG32(_AC(0x51000000, UL), 0x10) = (0x0 << 30)/**/ + (50 << 18)/*fbdiv*/ + (0x3 << 15)/*postdiv0_0*/ + (0x0 << 12)/*postdiv1_0*/ + (0x3 << 9)/*postdiv0_1*/ + (0x1 << 6)/*postdiv1_1*/ + (0x4 << 3)/*postdiv0_1*/ + (0x3 << 0)/*postdiv1_1*/;
   100d8:	00c987b7          	lui	a5,0xc98
   100dc:	6637879b          	addiw	a5,a5,1635
   100e0:	c81c                	sw	a5,16(s0)
	
	// need bigger than 1us
	for(int i = 1; i >= 0; i--) {
		dprintf("Info: cfg pll parameter 0x%x - 0x%x\r\n", i, _REG32(_AC(0x51000000, UL), 0x10));
   100e2:	4810                	lw	a2,16(s0)
   100e4:	4585                	li	a1,1
   100e6:	00001517          	auipc	a0,0x1
   100ea:	70250513          	addi	a0,a0,1794 # 117e8 <dtb+0x1420>
   100ee:	180000ef          	jal	ra,1026e <kprintf>
   100f2:	4810                	lw	a2,16(s0)
   100f4:	4581                	li	a1,0
   100f6:	00001517          	auipc	a0,0x1
   100fa:	6f250513          	addi	a0,a0,1778 # 117e8 <dtb+0x1420>
   100fe:	170000ef          	jal	ra,1026e <kprintf>
	}

	
	_REG32(_AC(0x51000000, UL), 0x100) = (0x0 << 31) + (0x3 << 29) + (0x3 << 23) + (0x2 << 20) + (0x1 << 18);
   10102:	61a407b7          	lui	a5,0x61a40
   10106:	10f42023          	sw	a5,256(s0) # 51000100 <dtb+0x50fefd38>

	use_clk_freq = 40000UL;

	// judge debug config mode, for switch pll
	if((_REG32(_AC(0x51000000, UL), 0x20) & 0x40000000) == 0x40000000){
   1010a:	501c                	lw	a5,32(s0)
   1010c:	02179713          	slli	a4,a5,0x21
   10110:	02074563          	bltz	a4,1013a <main+0xa6>
	}
	else{
		// wait more than 1us
		// check pll lock 100 times
		for(int i = 1; i >= 0; i--) {
			dprintf("Info: test pll state index: 0x%x - 0x%x\r\n", i, _REG32(_AC(0x51000000, UL), 0x20));
   10114:	5010                	lw	a2,32(s0)
   10116:	4585                	li	a1,1
   10118:	00001517          	auipc	a0,0x1
   1011c:	6f850513          	addi	a0,a0,1784 # 11810 <dtb+0x1448>
   10120:	14e000ef          	jal	ra,1026e <kprintf>
   10124:	5010                	lw	a2,32(s0)
   10126:	4581                	li	a1,0
   10128:	00001517          	auipc	a0,0x1
   1012c:	6e850513          	addi	a0,a0,1768 # 11810 <dtb+0x1448>
   10130:	13e000ef          	jal	ra,1026e <kprintf>
		}
		// check pll lock
		if((_REG32(_AC(0x51000000, UL), 0x20) & 0x00000001) == 0x00000001) {
   10134:	501c                	lw	a5,32(s0)
   10136:	8b85                	andi	a5,a5,1
   10138:	e7cd                	bnez	a5,101e2 <main+0x14e>
			_REG32(_AC(0x51000000, UL), 0x18) = (0x2 << 15) + (0x4 << 10) + (0x1 << 5) + (0x1);  // SOC_LSYS cfg pll cfg
			kprintf("Info: end switch work clk to pll output: 0x%x", _REG32(_AC(0x51000000, UL), 0x20));
			use_clk_freq = 200000UL;
		}
		else {
			_REG32(_AC(0x51000000, UL), 0x18) = (18 << 15) + (20 << 10) + (0x0 << 5) + (0x0);  // SOC_LSYS cfg pll cfg
   1013a:	000957b7          	lui	a5,0x95
   1013e:	cc1c                	sw	a5,24(s0)
			// donot need switch pll, use ref clk
			// cfg sdram parameter to 10m
			_REG32(_AC(0x51000000, UL), 0x200) = 1000;
   10140:	3e800793          	li	a5,1000
   10144:	20f42023          	sw	a5,512(s0)
			_REG32(_AC(0x51000000, UL), 0x208) = 77;
   10148:	04d00793          	li	a5,77
   1014c:	20f42423          	sw	a5,520(s0)
			_REG32(_AC(0x51000000, UL), 0x210) = 1;
   10150:	20942823          	sw	s1,528(s0)
			_REG32(_AC(0x51000000, UL), 0x218) = 1;
   10154:	20942c23          	sw	s1,536(s0)
			_REG32(_AC(0x51000000, UL), 0x220) = 1;
   10158:	22942023          	sw	s1,544(s0)

			kprintf("Info: donot need switch work clk to pll output: 0x%x", _REG32(_AC(0x51000000, UL), 0x20));
   1015c:	500c                	lw	a1,32(s0)
   1015e:	00001517          	auipc	a0,0x1
   10162:	6e250513          	addi	a0,a0,1762 # 11840 <dtb+0x1478>
   10166:	108000ef          	jal	ra,1026e <kprintf>
	// test for wait delay
	// base_addr = 0x50000000UL; 
	// for(long i = 0; i <= 500; i++) {
	// 	dprintf("Info: read value %x @ addr %x\r\n", _REG64(base_addr, 0x0), base_addr);
	// }
    dprintf("Info: after cfg mig takeover, check tx_dfx value %x, rx_dfx value %x\r\n", _REG64(base_addr, 0xb0), _REG64(base_addr, 0xb8));
   1016a:	510007b7          	lui	a5,0x51000
   1016e:	7bcc                	ld	a1,176(a5)
   10170:	7fd0                	ld	a2,184(a5)
   10172:	00001517          	auipc	a0,0x1
   10176:	76650513          	addi	a0,a0,1894 # 118d8 <dtb+0x1510>
   1017a:	0f4000ef          	jal	ra,1026e <kprintf>

	kputs("INIT\n");
   1017e:	00001517          	auipc	a0,0x1
   10182:	7a250513          	addi	a0,a0,1954 # 11920 <dtb+0x1558>
   10186:	0a4000ef          	jal	ra,1022a <kputs>
	dprintf("Info: cfg SPI_REG_SCKDIV value %x\r\n", sclkdiv);
   1018a:	03200593          	li	a1,50
   1018e:	00001517          	auipc	a0,0x1
   10192:	79a50513          	addi	a0,a0,1946 # 11928 <dtb+0x1560>
   10196:	0d8000ef          	jal	ra,1026e <kprintf>
	REG32(spi, SPI_REG_SCKDIV) = sclkdiv;
   1019a:	640017b7          	lui	a5,0x64001
   1019e:	03200713          	li	a4,50
   101a2:	c398                	sw	a4,0(a5)
	REG32(spi, SPI_REG_CSMODE) = SPI_CSMODE_OFF;
   101a4:	468d                	li	a3,3
	REG32(spi, SPI_REG_TXFIFO) = d;
   101a6:	64001737          	lui	a4,0x64001
	REG32(spi, SPI_REG_CSMODE) = SPI_CSMODE_OFF;
   101aa:	cf94                	sw	a3,24(a5)
	REG32(spi, SPI_REG_TXFIFO) = d;
   101ac:	04870593          	addi	a1,a4,72 # 64001048 <dtb+0x63ff0c80>
	REG32(spi, SPI_REG_CSMODE) = SPI_CSMODE_OFF;
   101b0:	46a9                	li	a3,10
	REG32(spi, SPI_REG_TXFIFO) = d;
   101b2:	0ff00613          	li	a2,255
   101b6:	c190                	sw	a2,0(a1)
		r = REG32(spi, SPI_REG_RXFIFO);
   101b8:	477c                	lw	a5,76(a4)
	} while (r < 0);
   101ba:	fe07cfe3          	bltz	a5,101b8 <main+0x124>
   101be:	16fd                	addi	a3,a3,-1
	for (i = 10; i > 0; i--) {
   101c0:	fafd                	bnez	a3,101b6 <main+0x122>
	REG32(spi, SPI_REG_CSMODE) = SPI_CSMODE_AUTO;
   101c2:	00072c23          	sw	zero,24(a4)
	//     sd_cmd16() ||
	//     copy()) {
	// 	kputs("ERROR");
	// 	return 1;
	// }
	kputs("BOOT\n");
   101c6:	00001517          	auipc	a0,0x1
   101ca:	78a50513          	addi	a0,a0,1930 # 11950 <dtb+0x1588>
   101ce:	05c000ef          	jal	ra,1022a <kputs>
	//kprintf(SHUTDOWN_FLAG_STR);
	__asm__ __volatile__ ("fence.i" : : : "memory");
   101d2:	0000100f          	fence.i
	return 0;
}
   101d6:	60e2                	ld	ra,24(sp)
   101d8:	6442                	ld	s0,16(sp)
   101da:	64a2                	ld	s1,8(sp)
   101dc:	4501                	li	a0,0
   101de:	6105                	addi	sp,sp,32
   101e0:	8082                	ret
			kprintf("Info: begin switch work clk to pll output: 0x%x", _REG32(_AC(0x51000000, UL), 0x20));
   101e2:	500c                	lw	a1,32(s0)
   101e4:	00001517          	auipc	a0,0x1
   101e8:	69450513          	addi	a0,a0,1684 # 11878 <dtb+0x14b0>
   101ec:	082000ef          	jal	ra,1026e <kprintf>
			_REG32(_AC(0x51000000, UL), 0x200) = 5000;
   101f0:	6785                	lui	a5,0x1
   101f2:	3887879b          	addiw	a5,a5,904
   101f6:	20f42023          	sw	a5,512(s0)
			_REG32(_AC(0x51000000, UL), 0x208) = 1561;
   101fa:	61900793          	li	a5,1561
   101fe:	20f42423          	sw	a5,520(s0)
			_REG32(_AC(0x51000000, UL), 0x210) = 2;
   10202:	4789                	li	a5,2
   10204:	20f42823          	sw	a5,528(s0)
			_REG32(_AC(0x51000000, UL), 0x218) = 2;
   10208:	20f42c23          	sw	a5,536(s0)
			_REG32(_AC(0x51000000, UL), 0x220) = 4;
   1020c:	4791                	li	a5,4
   1020e:	22f42023          	sw	a5,544(s0)
			_REG32(_AC(0x51000000, UL), 0x18) = (0x2 << 15) + (0x4 << 10) + (0x1 << 5) + (0x1);  // SOC_LSYS cfg pll cfg
   10212:	67c5                	lui	a5,0x11
   10214:	0217879b          	addiw	a5,a5,33
   10218:	cc1c                	sw	a5,24(s0)
			kprintf("Info: end switch work clk to pll output: 0x%x", _REG32(_AC(0x51000000, UL), 0x20));
   1021a:	500c                	lw	a1,32(s0)
   1021c:	00001517          	auipc	a0,0x1
   10220:	68c50513          	addi	a0,a0,1676 # 118a8 <dtb+0x14e0>
   10224:	04a000ef          	jal	ra,1026e <kprintf>
   10228:	b789                	j	1016a <main+0xd6>

000000000001022a <kputs>:
#include "kprintf.h"

static inline void _kputs(const char *s)
{
	char c;
	for (; (c = *s) != '\0'; s++)
   1022a:	00054703          	lbu	a4,0(a0)
   1022e:	cf09                	beqz	a4,10248 <kputs+0x1e>
{
	volatile uint32_t *tx = &REG32(uart, UART_REG_TXFIFO);
#ifdef __riscv_atomic
	int32_t r;
	do {
		__asm__ __volatile__ (
   10230:	640007b7          	lui	a5,0x64000
   10234:	40e7a6af          	amoor.w	a3,a4,(a5)
			"amoor.w %0, %2, %1\n"
			: "=r" (r), "+A" (*tx)
			: "r" (c));
	} while (r < 0);
   10238:	02069613          	slli	a2,a3,0x20
   1023c:	fe064ce3          	bltz	a2,10234 <kputs+0xa>
   10240:	0505                	addi	a0,a0,1
   10242:	00054703          	lbu	a4,0(a0)
   10246:	f77d                	bnez	a4,10234 <kputs+0xa>
		__asm__ __volatile__ (
   10248:	640007b7          	lui	a5,0x64000
   1024c:	4735                	li	a4,13
   1024e:	40e7a6af          	amoor.w	a3,a4,(a5)
	} while (r < 0);
   10252:	02069613          	slli	a2,a3,0x20
   10256:	fe064ce3          	bltz	a2,1024e <kputs+0x24>
		__asm__ __volatile__ (
   1025a:	640007b7          	lui	a5,0x64000
   1025e:	4729                	li	a4,10
   10260:	40e7a6af          	amoor.w	a3,a4,(a5)
	} while (r < 0);
   10264:	02069613          	slli	a2,a3,0x20
   10268:	fe064ce3          	bltz	a2,10260 <kputs+0x36>
void kputs(const char *s)
{
	_kputs(s);
	kputc('\r');
	kputc('\n');
}
   1026c:	8082                	ret

000000000001026e <kprintf>:

void kprintf(const char *fmt, ...)
{
   1026e:	715d                	addi	sp,sp,-80
   10270:	fc3e                	sd	a5,56(sp)
	va_list vl;
	bool is_format, is_long, is_char;
	char c;

	va_start(vl, fmt);
   10272:	083c                	addi	a5,sp,24
{
   10274:	ec2e                	sd	a1,24(sp)
   10276:	f032                	sd	a2,32(sp)
   10278:	e0c2                	sd	a6,64(sp)
   1027a:	e4c6                	sd	a7,72(sp)
	va_start(vl, fmt);
   1027c:	e43e                	sd	a5,8(sp)
{
   1027e:	f436                	sd	a3,40(sp)
   10280:	f83a                	sd	a4,48(sp)
	is_format = false;
	is_long = false;
	is_char = false;
   10282:	4e81                	li	t4,0
	is_long = false;
   10284:	4581                	li	a1,0
	is_format = false;
   10286:	4601                	li	a2,0
				break;
			}
			is_format = false;
			is_long = false;
			is_char = false;
		} else if (c == '%') {
   10288:	02500313          	li	t1,37
		__asm__ __volatile__ (
   1028c:	640007b7          	lui	a5,0x64000
			switch (c) {
   10290:	48d5                	li	a7,21
   10292:	00001817          	auipc	a6,0x1
   10296:	6c680813          	addi	a6,a6,1734 # 11958 <dtb+0x1590>
					kputc(d < 10 ? '0' + d : 'a' + d - 10);
   1029a:	4e25                	li	t3,9
	while ((c = *fmt++) != '\0') {
   1029c:	0505                	addi	a0,a0,1
   1029e:	fff54703          	lbu	a4,-1(a0)
   102a2:	c315                	beqz	a4,102c6 <kprintf+0x58>
		if (is_format) {
   102a4:	c625                	beqz	a2,1030c <kprintf+0x9e>
			switch (c) {
   102a6:	f9d7071b          	addiw	a4,a4,-99
   102aa:	0ff77713          	andi	a4,a4,255
   102ae:	04e8eb63          	bltu	a7,a4,10304 <kprintf+0x96>
   102b2:	070a                	slli	a4,a4,0x2
   102b4:	9742                	add	a4,a4,a6
   102b6:	4318                	lw	a4,0(a4)
   102b8:	9742                	add	a4,a4,a6
   102ba:	8702                	jr	a4
	while ((c = *fmt++) != '\0') {
   102bc:	0505                	addi	a0,a0,1
   102be:	fff54703          	lbu	a4,-1(a0)
				is_long = true;
   102c2:	85b2                	mv	a1,a2
	while ((c = *fmt++) != '\0') {
   102c4:	f365                	bnez	a4,102a4 <kprintf+0x36>
		} else {
			kputc(c);
		}
	}
	va_end(vl);
}
   102c6:	6161                	addi	sp,sp,80
   102c8:	8082                	ret
   102ca:	6722                	ld	a4,8(sp)
   102cc:	00870693          	addi	a3,a4,8
					n = va_arg(vl, unsigned long);
   102d0:	e436                	sd	a3,8(sp)
				if (is_long) {
   102d2:	c5c5                	beqz	a1,1037a <kprintf+0x10c>
					n = va_arg(vl, unsigned long);
   102d4:	00073f03          	ld	t5,0(a4)
					i = (sizeof(unsigned long) << 3) - 4;
   102d8:	03c00613          	li	a2,60
					d = (n >> i) & 0xF;
   102dc:	00cf56b3          	srl	a3,t5,a2
   102e0:	8abd                	andi	a3,a3,15
   102e2:	0ff6f593          	andi	a1,a3,255
					kputc(d < 10 ? '0' + d : 'a' + d - 10);
   102e6:	05758713          	addi	a4,a1,87
   102ea:	00de4463          	blt	t3,a3,102f2 <kprintf+0x84>
   102ee:	03058713          	addi	a4,a1,48
   102f2:	40e7a6af          	amoor.w	a3,a4,(a5)
	} while (r < 0);
   102f6:	02069593          	slli	a1,a3,0x20
   102fa:	fe05cce3          	bltz	a1,102f2 <kprintf+0x84>
				for (; i >= 0; i -= 4) {
   102fe:	1671                	addi	a2,a2,-4
   10300:	fc065ee3          	bgez	a2,102dc <kprintf+0x6e>
			is_char = false;
   10304:	4e81                	li	t4,0
			is_long = false;
   10306:	4581                	li	a1,0
			is_format = false;
   10308:	4601                	li	a2,0
   1030a:	bf49                	j	1029c <kprintf+0x2e>
		} else if (c == '%') {
   1030c:	00671463          	bne	a4,t1,10314 <kprintf+0xa6>
			is_format = true;
   10310:	4605                	li	a2,1
   10312:	b769                	j	1029c <kprintf+0x2e>
		__asm__ __volatile__ (
   10314:	40e7a6af          	amoor.w	a3,a4,(a5)
	} while (r < 0);
   10318:	02069f13          	slli	t5,a3,0x20
   1031c:	f80f50e3          	bgez	t5,1029c <kprintf+0x2e>
		__asm__ __volatile__ (
   10320:	40e7a6af          	amoor.w	a3,a4,(a5)
	} while (r < 0);
   10324:	02069f13          	slli	t5,a3,0x20
   10328:	fe0f46e3          	bltz	t5,10314 <kprintf+0xa6>
   1032c:	bf85                	j	1029c <kprintf+0x2e>
				_kputs(va_arg(vl, const char *));
   1032e:	6722                	ld	a4,8(sp)
   10330:	6310                	ld	a2,0(a4)
   10332:	0721                	addi	a4,a4,8
   10334:	e43a                	sd	a4,8(sp)
	for (; (c = *s) != '\0'; s++)
   10336:	00064703          	lbu	a4,0(a2)
   1033a:	d769                	beqz	a4,10304 <kprintf+0x96>
		__asm__ __volatile__ (
   1033c:	40e7a6af          	amoor.w	a3,a4,(a5)
	} while (r < 0);
   10340:	02069593          	slli	a1,a3,0x20
   10344:	fe05cce3          	bltz	a1,1033c <kprintf+0xce>
   10348:	0605                	addi	a2,a2,1
   1034a:	00064703          	lbu	a4,0(a2)
   1034e:	f77d                	bnez	a4,1033c <kprintf+0xce>
			is_char = false;
   10350:	4e81                	li	t4,0
			is_long = false;
   10352:	4581                	li	a1,0
			is_format = false;
   10354:	4601                	li	a2,0
   10356:	b799                	j	1029c <kprintf+0x2e>
				is_char = true;
   10358:	8eb2                	mv	t4,a2
   1035a:	b789                	j	1029c <kprintf+0x2e>
				kputc(va_arg(vl, int));
   1035c:	66a2                	ld	a3,8(sp)
   1035e:	0006c703          	lbu	a4,0(a3)
   10362:	06a1                	addi	a3,a3,8
   10364:	e436                	sd	a3,8(sp)
		__asm__ __volatile__ (
   10366:	40e7a6af          	amoor.w	a3,a4,(a5)
	} while (r < 0);
   1036a:	02069613          	slli	a2,a3,0x20
   1036e:	fe064ce3          	bltz	a2,10366 <kprintf+0xf8>
			is_char = false;
   10372:	4e81                	li	t4,0
			is_long = false;
   10374:	4581                	li	a1,0
			is_format = false;
   10376:	4601                	li	a2,0
   10378:	b715                	j	1029c <kprintf+0x2e>
					n = va_arg(vl, unsigned int);
   1037a:	00076f03          	lwu	t5,0(a4)
					i = is_char ? 4 : (sizeof(unsigned int) << 3) - 4;
   1037e:	4611                	li	a2,4
   10380:	f40e9ee3          	bnez	t4,102dc <kprintf+0x6e>
   10384:	4671                	li	a2,28
   10386:	bf99                	j	102dc <kprintf+0x6e>
	...
